 MorphEngine

 Timestamp is 43e8c7fa (Tue Feb 07 11:16:58 2006)

 Preferred load address is 00400000

 Start         Length     Name                   Class
 0001:00000000 0004e270H .text                   CODE
 0001:0004e270 00000933H .text$x                 CODE
 0002:00000000 00003151H .rdata                  DATA
 0002:00003158 0000031cH .rdata$r                DATA
 0002:00003478 00000948H .xdata$x                DATA
 0002:00003dc0 00000000H .edata                  DATA
 0003:00000000 00000004H .CRT$XCA                DATA
 0003:00000004 00000004H .CRT$XCU                DATA
 0003:00000008 00000004H .CRT$XCZ                DATA
 0003:0000000c 00000004H .CRT$XIA                DATA
 0003:00000010 00000008H .CRT$XIC                DATA
 0003:00000018 00000004H .CRT$XIY                DATA
 0003:0000001c 00000004H .CRT$XIZ                DATA
 0003:00000020 00000004H .CRT$XPA                DATA
 0003:00000024 00000004H .CRT$XPX                DATA
 0003:00000028 00000004H .CRT$XPZ                DATA
 0003:0000002c 00000004H .CRT$XTA                DATA
 0003:00000030 00000004H .CRT$XTB                DATA
 0003:00000034 00000004H .CRT$XTZ                DATA
 0003:00000040 0000198cH .data                   DATA
 0003:000019d0 00002b64H .bss                    DATA
 0004:00000000 00000064H .idata$2                DATA
 0004:00000064 00000014H .idata$3                DATA
 0004:00000078 00000278H .idata$4                DATA
 0004:000002f0 00000278H .idata$5                DATA
 0004:00000568 00000a18H .idata$6                DATA
 0005:00000000 000000e8H .rsrc$01                DATA
 0005:000000f0 00000420H .rsrc$02                DATA

  Address         Publics by Value              Rva+Base     Lib:Object

 0001:00000000       ??0AGENT@@QAE@HPAUdxWorld@@PAUdxSpace@@@Z 00401000 f   agent.obj
 0001:00000110       ??0AGENT@@QAE@HPAV0@@Z     00401110 f   agent.obj
 0001:000004b0       ??1AGENT@@QAE@XZ           004014b0 f   agent.obj
 0001:00000700       ??_GME_OBJECT@@QAEPAXI@Z   00401700 f i agent.obj
 0001:00000760       ??_GME_JOINT@@QAEPAXI@Z    00401760 f i agent.obj
 0001:000007c0       ??_GTRAJECTORY@@QAEPAXI@Z  004017c0 f i agent.obj
 0001:00000820       ??_GMATRIX@@QAEPAXI@Z      00401820 f i agent.obj
 0001:00000880       ?AttachedTo@AGENT@@QAEHPAV1@@Z 00401880 f   agent.obj
 0001:00000930       ?AttachTo@AGENT@@QAEXPAV1@PAUdxWorld@@@Z 00401930 f   agent.obj
 0001:00000960       ?ContainsLightSensor@AGENT@@QAEHXZ 00401960 f   agent.obj
 0001:000009d0       ?CreateJoints@AGENT@@QAEXPAUdxWorld@@@Z 004019d0 f   agent.obj
 0001:00000a40       ?CreateObjects@AGENT@@QAEXHPANPAVME_OBJECT@@PAUdxWorld@@PAUdxSpace@@@Z 00401a40 f   agent.obj
 0001:00000af0       ?CreateODEStuff@AGENT@@QAEXPAUdxWorld@@PAUdxSpace@@@Z 00401af0 f   agent.obj
 0001:00000ba0       ?DestroyODEStuff@AGENT@@QAEXPAUdxSpace@@@Z 00401ba0 f   agent.obj
 0001:00000c40       ?DistTo@AGENT@@QAENHPAV1@@Z 00401c40 f   agent.obj
 0001:00000ce0       ?Draw@AGENT@@QAEXXZ        00401ce0 f   agent.obj
 0001:00000d80       ?Exploding@AGENT@@QAEHXZ   00401d80 f   agent.obj
 0001:00000e50       ?GetCentreOfMass@AGENT@@QAEXPAN@Z 00401e50 f   agent.obj
 0001:00000f60       ?GetID@AGENT@@QAEHXZ       00401f60 f   agent.obj
 0001:00000f90       ?GetJoint@AGENT@@QAEPAVME_JOINT@@H@Z 00401f90 f   agent.obj
 0001:00000fd0       ?GetJoint@AGENT@@QAEPAVME_JOINT@@PAD@Z 00401fd0 f   agent.obj
 0001:00001060       ?GetMaxHeight@AGENT@@QAENXZ 00402060 f   agent.obj
 0001:000010f0       ?GetMinHeight@AGENT@@QAENXZ 004020f0 f   agent.obj
 0001:000011a0       ?GetName@AGENT@@QAEPADH@Z  004021a0 f   agent.obj
 0001:000011e0       ?GetNumOfJoints@AGENT@@QAEHXZ 004021e0 f   agent.obj
 0001:00001210       ?GetNumOfObjects@AGENT@@QAEHXZ 00402210 f   agent.obj
 0001:00001240       ?GetNumOfPossibleJoints@AGENT@@QAEHXZ 00402240 f   agent.obj
 0001:00001270       ?GetNumOfWeights@AGENT@@QAEHXZ 00402270 f   agent.obj
 0001:000012a0       ?GetObject@AGENT@@QAEPAVME_OBJECT@@H@Z 004022a0 f   agent.obj
 0001:000012e0       ?GetWidth@AGENT@@QAENXZ    004022e0 f   agent.obj
 0001:000013c0       ?GetLength@AGENT@@QAENXZ   004023c0 f   agent.obj
 0001:000014a0       ?HandleCollisions@AGENT@@QAEXH@Z 004024a0 f   agent.obj
 0001:000014d0       ?IncreasePerturbation@AGENT@@QAEXN@Z 004024d0 f   agent.obj
 0001:00001540       ?InitNetwork@AGENT@@QAEXHH@Z 00402540 f   agent.obj
 0001:00001570       ?Move@AGENT@@QAEXHPAVME_OBJECT@@PAVPLUME@@PAUdxWorld@@PAUdxGeom@@@Z 00402570 f   agent.obj
 0001:000015e0       ?PerturbSynapses@AGENT@@QAEXXZ 004025e0 f   agent.obj
 0001:00001610       ?Push@AGENT@@QAEXNNN@Z     00402610 f   agent.obj
 0001:00001690       ?RemoveExtraneousObjects@AGENT@@QAEXPAUdxSpace@@@Z 00402690 f   agent.obj
 0001:000016c0       ?Reset@AGENT@@QAEXXZ       004026c0 f   agent.obj
 0001:00001720       ?ResetTouchSensors@AGENT@@QAEXXZ 00402720 f   agent.obj
 0001:000017b0       ?SaveToRaytracerFile@AGENT@@QAEXPAVofstream@@@Z 004027b0 f   agent.obj
 0001:00001820       ?SpecifyPhenotype@AGENT@@QAEXHPAN@Z 00402820 f   agent.obj
 0001:000018f0       ?SwitchOnPressureSensors@AGENT@@QAEXPAUdxWorld@@@Z 004028f0 f   agent.obj
 0001:00001960       ?ToggleFootprintDrawing@AGENT@@QAEXXZ 00402960 f   agent.obj
 0001:000019c0       ?ToggleTrajectoryDrawing@AGENT@@QAEXXZ 004029c0 f   agent.obj
 0001:00001aa0       ?ActuateJoints@AGENT@@AAEXXZ 00402aa0 f   agent.obj
 0001:00001b60       ?BreakExternalConnectionsIfNecessary@AGENT@@AAEXXZ 00402b60 f   agent.obj
 0001:00001c70       ?CountPossibleExternalJoints@AGENT@@AAEHXZ 00402c70 f   agent.obj
 0001:00001ce0       ?CreateBody@AGENT@@AAEXPAUdxWorld@@PAUdxSpace@@@Z 00402ce0 f   agent.obj
 0001:00001eb0       ?CreateBrain@AGENT@@AAEXXZ 00402eb0 f   agent.obj
 0001:00001f00       ?DetachJoints@AGENT@@AAEXXZ 00402f00 f   agent.obj
 0001:00002010       ?DetermineMaxLightSensorReading@AGENT@@AAEXPAVME_OBJECT@@@Z 00403010 f   agent.obj
 0001:000020b0       ?DrawJointNormals@AGENT@@AAEXXZ 004030b0 f   agent.obj
 0001:00002110       ?DrawNeuralNetwork@AGENT@@AAEXXZ 00403110 f   agent.obj
 0001:00002140       ?FindRelatedJoints@AGENT@@AAEXXZ 00403140 f   agent.obj
 0001:000021e0       ?IntroduceNoise@AGENT@@AAEXXZ 004031e0 f   agent.obj
 0001:00002240       ?ReadInDataParameters@AGENT@@AAEXXZ 00403240 f   agent.obj
 0001:000023b0       ?ReadInJoint@AGENT@@AAEXH@Z 004033b0 f   agent.obj
 0001:00002480       ?ReadInObject@AGENT@@AAEXH@Z 00403480 f   agent.obj
 0001:00002550       ?RecordObjectData@AGENT@@AAEXXZ 00403550 f   agent.obj
 0001:00002580       ?RecordSensorData@AGENT@@AAEXXZ 00403580 f   agent.obj
 0001:000025b0       ?RecordCentreOfMass@AGENT@@AAEXPAN@Z 004035b0 f   agent.obj
 0001:00002660       ?SaveCentreOfMass@AGENT@@QAEXPAN@Z 00403660 f   agent.obj
 0001:000026f0       ?TakeAgentSensorReadings@AGENT@@AAEXH@Z 004036f0 f   agent.obj
 0001:00002720       ?TakeAngleSensorReadings@AGENT@@AAEXXZ 00403720 f   agent.obj
 0001:000027f0       ?TakeAttachmentSensorReadings@AGENT@@AAEXXZ 004037f0 f   agent.obj
 0001:00002820       ?TakeChemoSensorReadings@AGENT@@AAEXPAVPLUME@@@Z 00403820 f   agent.obj
 0001:00002850       ?TakeDistanceSensorReading@AGENT@@AAEXPAUdxGeom@@@Z 00403850 f   agent.obj
 0001:00002920       ?TakeForwardSensorReading@AGENT@@AAEXXZ 00403920 f   agent.obj
 0001:00002980       ?TakeLeftSensorReading@AGENT@@AAEXXZ 00403980 f   agent.obj
 0001:000029e0       ?TakeLightSensorReadings@AGENT@@AAEXPAVME_OBJECT@@@Z 004039e0 f   agent.obj
 0001:00002a10       ?TakeLowestHeightSensorReading@AGENT@@AAEXXZ 00403a10 f   agent.obj
 0001:00002a70       ?TakeObj0HeightSensorReading@AGENT@@AAEXXZ 00403a70 f   agent.obj
 0001:00002ad0       ?TakeOrientationSensorReadings@AGENT@@AAEXXZ 00403ad0 f   agent.obj
 0001:00002b10       ?TakePressureSensorReadings@AGENT@@AAEXPAUdxGeom@@@Z 00403b10 f   agent.obj
 0001:00002c10       ?TakeSensorReadings@AGENT@@AAEXHPAVME_OBJECT@@PAVPLUME@@PAUdxGeom@@@Z 00403c10 f   agent.obj
 0001:00002c80       ?TakeTouchSensorReadings@AGENT@@AAEXXZ 00403c80 f   agent.obj
 0001:00002cb0       ?TakeVelocitySensorReadings@AGENT@@AAEXXZ 00403cb0 f   agent.obj
 0001:00002db0       ?UpdateSpringConnections@AGENT@@AAEXXZ 00403db0 f   agent.obj
 0001:00002e30       ??0ENVIRONMENT@@QAE@XZ     00403e30 f   environment.obj
 0001:00002e80       ??1ENVIRONMENT@@QAE@XZ     00403e80 f   environment.obj
 0001:00003010       ??_GAGENT@@QAEPAXI@Z       00404010 f i environment.obj
 0001:00003070       ??_GPLUME@@QAEPAXI@Z       00404070 f i environment.obj
 0001:000030d0       ?AgentAvailable@ENVIRONMENT@@QAEHXZ 004040d0 f   environment.obj
 0001:00003140       ?ChangePlumePtSource@ENVIRONMENT@@QAEXH@Z 00404140 f   environment.obj
 0001:00003180       ?CreateAgent@ENVIRONMENT@@QAEXXZ 00404180 f   environment.obj
 0001:00003280       ?CreatePlume@ENVIRONMENT@@QAEXXZ 00404280 f   environment.obj
 0001:00003330       ?DestroyAgent@ENVIRONMENT@@QAEXXZ 00404330 f   environment.obj
 0001:00003400       ?DestroyPlume@ENVIRONMENT@@QAEXXZ 00404400 f   environment.obj
 0001:00003470       ?Draw@ENVIRONMENT@@QAEXXZ  00404470 f   environment.obj
 0001:00003500       ?EvaluationFinished@ENVIRONMENT@@QAEHXZ 00404500 f   environment.obj
 0001:00003580       ?GetFitness@ENVIRONMENT@@QAENXZ 00404580 f   environment.obj
 0001:00003630       ?GetObjectPosition@ENVIRONMENT@@QAEXPADPAPAN@Z 00404630 f   environment.obj
 0001:00003690       ?HandleCollisions@ENVIRONMENT@@QAEXXZ 00404690 f   environment.obj
 0001:00003710       ?IncreasePerturbation@ENVIRONMENT@@QAEXN@Z 00404710 f   environment.obj
 0001:00003780       ?MoveAgents@ENVIRONMENT@@QAEXXZ 00404780 f   environment.obj
 0001:00003810       ?MoveDebris@ENVIRONMENT@@QAEXXZ 00404810 f   environment.obj
 0001:000038b0       ?PerturbSynapses@ENVIRONMENT@@QAEXXZ 004048b0 f   environment.obj
 0001:00003910       ?Push@ENVIRONMENT@@QAEXNNN@Z 00404910 f   environment.obj
 0001:00003990       ?RefreshTouchPoints@ENVIRONMENT@@QAEXXZ 00404990 f   environment.obj
 0001:00003b80       ?Reset@ENVIRONMENT@@QAEXXZ 00404b80 f   environment.obj
 0001:00003c30       ?ResetTouchSensors@ENVIRONMENT@@QAEXXZ 00404c30 f   environment.obj
 0001:00003c90       ?SaveToRaytracerFile@ENVIRONMENT@@QAEXXZ 00404c90 f   environment.obj
 0001:00003d00       ?ToggleFootprintDrawing@ENVIRONMENT@@QAEXXZ 00404d00 f   environment.obj
 0001:00003d60       ?ToggleTrajectoryDrawing@ENVIRONMENT@@QAEXXZ 00404d60 f   environment.obj
 0001:00003dc0       ?AgentExploding@ENVIRONMENT@@AAEHXZ 00404dc0 f   environment.obj
 0001:00003e10       ?AgentTipping@ENVIRONMENT@@AAEHXZ 00404e10 f   environment.obj
 0001:00003f80       ?AttemptAttachment@ENVIRONMENT@@AAEXXZ 00404f80 f   environment.obj
 0001:00003fb0       ?ChangeDebrisField@ENVIRONMENT@@QAEXXZ 00404fb0 f   environment.obj
 0001:00004050       ?CloseRaytracerFile@ENVIRONMENT@@AAEXXZ 00405050 f   environment.obj
 0001:00004090       ?CollisionBetweenAgents@ENVIRONMENT@@AAEHXZ 00405090 f   environment.obj
 0001:000040c0       ?CountTotalJoints@ENVIRONMENT@@AAEHXZ 004050c0 f   environment.obj
 0001:00004110       ?CountTotalObjects@ENVIRONMENT@@AAEHXZ 00405110 f   environment.obj
 0001:00004160       ?CountTotalPossibleJoints@ENVIRONMENT@@AAEHXZ 00405160 f   environment.obj
 0001:000041b0       ?CreateDebris@ENVIRONMENT@@AAEXXZ 004051b0 f   environment.obj
 0001:000042b0       ?CreateFloor@ENVIRONMENT@@AAEXXZ 004052b0 f   environment.obj
 0001:00004310       ?CreateLightSource@ENVIRONMENT@@AAEXH@Z 00405310 f   environment.obj
 0001:000043c0       ?CreateODEStuff@ENVIRONMENT@@AAEXXZ 004053c0 f   environment.obj
 0001:00004460       ?DestroyDebris@ENVIRONMENT@@AAEXXZ 00405460 f   environment.obj
 0001:00004530       ??_GDEBRIS@@QAEPAXI@Z      00405530 f i environment.obj
 0001:00004590       ?DestroyFloor@ENVIRONMENT@@AAEXXZ 00405590 f   environment.obj
 0001:000045f0       ?DestroyLightSource@ENVIRONMENT@@AAEXXZ 004055f0 f   environment.obj
 0001:00004620       ?DestroyODEStuff@ENVIRONMENT@@AAEXXZ 00405620 f   environment.obj
 0001:00004690       ?DetermineFitnessCriteria@ENVIRONMENT@@AAEXPAVAGENT@@@Z 00405690 f   environment.obj
 0001:00004e40       ?FindObject@ENVIRONMENT@@AAEPAVME_OBJECT@@PADPAVAGENT@@@Z 00405e40 f   environment.obj
 0001:00004e70       ?GetDistToLight@ENVIRONMENT@@AAENXZ 00405e70 f   environment.obj
 0001:00004ec0       ?GetDistToPtSource@ENVIRONMENT@@AAENXZ 00405ec0 f   environment.obj
 0001:00004f30       ?GetForwardDist@ENVIRONMENT@@AAENXZ 00405f30 f   environment.obj
 0001:00005080       ?GetMaxHeight@ENVIRONMENT@@AAENXZ 00406080 f   environment.obj
 0001:00005140       ?GetNumOfExternalJoints@ENVIRONMENT@@AAENXZ 00406140 f   environment.obj
 0001:000051b0       ?OpenRaytracerFile@ENVIRONMENT@@AAEXXZ 004061b0 f   environment.obj
 0001:00005280       ?RepositionLightSource@ENVIRONMENT@@AAEXH@Z 00406280 f   environment.obj
 0001:00005350       ?ReadFromFile@ENVIRONMENT@@AAEXXZ 00406350 f   environment.obj
 0001:00005380       ?SumOfDists@ENVIRONMENT@@AAENXZ 00406380 f   environment.obj
 0001:00005430       ??0MATRIX@@QAE@HH@Z        00406430 f   matrix.obj
 0001:000054a0       ??0MATRIX@@QAE@HHN@Z       004064a0 f   matrix.obj
 0001:00005560       ??0MATRIX@@QAE@PAV0@@Z     00406560 f   matrix.obj
 0001:00005630       ??0MATRIX@@QAE@PAVifstream@@@Z 00406630 f   matrix.obj
 0001:00005710       ??1MATRIX@@QAE@XZ          00406710 f   matrix.obj
 0001:00005760       ?AbsoluteDifference@MATRIX@@QAENPAV1@@Z 00406760 f   matrix.obj
 0001:000057b0       ?AbsoluteDifference@MATRIX@@QAENPAV1@HH@Z 004067b0 f   matrix.obj
 0001:000058b0       ?AbsoluteDifference@MATRIX@@QAENPAV1@H@Z 004068b0 f   matrix.obj
 0001:000059a0       ?AbsoluteDifference@MATRIX@@QAENPAV1@HN@Z 004069a0 f   matrix.obj
 0001:00005a00       ?AbsoluteDifferenceOfTails@MATRIX@@QAENPAV1@@Z 00406a00 f   matrix.obj
 0001:00005ac0       ?Add@MATRIX@@QAEXHHH@Z     00406ac0 f   matrix.obj
 0001:00005b20       ?BinaryToDecimal@MATRIX@@QAEHHHH@Z 00406b20 f   matrix.obj
 0001:00005bd0       ?ComputeFSM@MATRIX@@QAEHPAV1@0HHHH0@Z 00406bd0 f   matrix.obj
 0001:00005c90       ?Contains@MATRIX@@QAEHN@Z  00406c90 f   matrix.obj
 0001:00005d30       ?CopyInto@MATRIX@@QAEXPAV1@@Z 00406d30 f   matrix.obj
 0001:00005dd0       ?CountValues@MATRIX@@QAEPAV1@HHHHH@Z 00406dd0 f   matrix.obj
 0001:00005ed0       ?CreateChain@MATRIX@@QAEXH@Z 00406ed0 f   matrix.obj
 0001:00005f70       ?CreateIdentity@MATRIX@@QAEXXZ 00406f70 f   matrix.obj
 0001:00006010       ?CreateParity@MATRIX@@QAEXXZ 00407010 f   matrix.obj
 0001:00006130       ?DecreaseFullColumns@MATRIX@@QAEXXZ 00407130 f   matrix.obj
 0001:000061c0       ?EqualColumnVals@MATRIX@@QAENHH@Z 004071c0 f   matrix.obj
 0001:00006260       ?FillColumn@MATRIX@@QAEXHHPAV1@@Z 00407260 f   matrix.obj
 0001:000062e0       ?FillRow@MATRIX@@QAEXHHPAV1@@Z 004072e0 f   matrix.obj
 0001:00006360       ?Flip@MATRIX@@QAEXHH@Z     00407360 f   matrix.obj
 0001:000063e0       ?FlipRandomBit@MATRIX@@QAEXXZ 004073e0 f   matrix.obj
 0001:00006450       ?FlipRandomBitInRow@MATRIX@@QAEXH@Z 00407450 f   matrix.obj
 0001:000064b0       ?Get@MATRIX@@QAENHH@Z      004074b0 f   matrix.obj
 0001:000064f0       ?GetColumn@MATRIX@@QAEPAV1@H@Z 004074f0 f   matrix.obj
 0001:000065d0       ?GetRow@MATRIX@@QAEPAV1@H@Z 004075d0 f   matrix.obj
 0001:000066b0       ?IncreaseEmptyColumns@MATRIX@@QAEXXZ 004076b0 f   matrix.obj
 0001:00006740       ?InitColumns@MATRIX@@QAEXH@Z 00407740 f   matrix.obj
 0001:000067b0       ?MaxOfColumn@MATRIX@@QAENH@Z 004077b0 f   matrix.obj
 0001:00006840       ?MinOfColumn@MATRIX@@QAENH@Z 00407840 f   matrix.obj
 0001:000068d0       ?MostSimilarRow@MATRIX@@QAEHPAV1@HH@Z 004078d0 f   matrix.obj
 0001:00006950       ?NonZeroMeanOfColumn@MATRIX@@QAENH@Z 00407950 f   matrix.obj
 0001:00006a10       ?NormalizeToMass@MATRIX@@QAEXXZ 00407a10 f   matrix.obj
 0001:00006ad0       ?Perturb@MATRIX@@QAEXH@Z   00407ad0 f   matrix.obj
 0001:00006b60       ?Print@MATRIX@@QAEXXZ      00407b60 f   matrix.obj
 0001:00006c60       ?PrintRow@MATRIX@@QAEXH@Z  00407c60 f   matrix.obj
 0001:00006d40       ?Randomize@MATRIX@@QAEXH@Z 00407d40 f   matrix.obj
 0001:00006da0       ?RandomizeColumn@MATRIX@@QAEXHH@Z 00407da0 f   matrix.obj
 0001:00006e20       ?RandomizeRow@MATRIX@@QAEXHH@Z 00407e20 f   matrix.obj
 0001:00006ea0       ?Replace@MATRIX@@QAEXPAV1@@Z 00407ea0 f   matrix.obj
 0001:00006f50       ?RowDifference@MATRIX@@QAEHHHPAV1@@Z 00407f50 f   matrix.obj
 0001:00006ff0       ?SelectUniquelyFrom@MATRIX@@QAEXH@Z 00407ff0 f   matrix.obj
 0001:00007160       ?Set@MATRIX@@QAEXHHN@Z     00408160 f   matrix.obj
 0001:000071b0       ?SetAllTo@MATRIX@@QAEXH@Z  004081b0 f   matrix.obj
 0001:00007240       ?SetRow@MATRIX@@QAEXHH@Z   00408240 f   matrix.obj
 0001:000072b0       ?SumOfColumn@MATRIX@@QAENH@Z 004082b0 f   matrix.obj
 0001:00007330       ?SumOfColumn@MATRIX@@QAENHHH@Z 00408330 f   matrix.obj
 0001:000073b0       ?SumOfIndices@MATRIX@@QAENPAV1@HHH@Z 004083b0 f   matrix.obj
 0001:00007440       ?SumOfRow@MATRIX@@QAENH@Z  00408440 f   matrix.obj
 0001:000074c0       ?WriteAndRename@MATRIX@@QAEXPAD@Z 004084c0 f   matrix.obj
 0001:00007630       ?Write@MATRIX@@QAEXPAVofstream@@@Z 00408630 f   matrix.obj
 0001:00007710       ?WriteRow@MATRIX@@QAEXHPAVofstream@@@Z 00408710 f   matrix.obj
 0001:000077d0       ?WriteRows@MATRIX@@QAEXHPAVofstream@@@Z 004087d0 f   matrix.obj
 0001:000078b0       ?Zero@MATRIX@@QAEXXZ       004088b0 f   matrix.obj
 0001:00007910       ?ZeroColumn@MATRIX@@QAEXH@Z 00408910 f   matrix.obj
 0001:00007980       ?BinaryToDecimal@MATRIX@@AAEHH@Z 00408980 f   matrix.obj
 0001:00007a20       ?DecimalToBinary@MATRIX@@AAEPAV1@HH@Z 00408a20 f   matrix.obj
 0001:00007ba0       ?FindFirstValue@MATRIX@@AAEHH@Z 00408ba0 f   matrix.obj
 0001:00007c30       ?InitColumn@MATRIX@@AAEXHH@Z 00408c30 f   matrix.obj
 0001:00007ce0       ?InitRandomly@MATRIX@@AAEXXZ 00408ce0 f   matrix.obj
 0001:00007d80       ?Mean@MATRIX@@AAENHHH@Z    00408d80 f   matrix.obj
 0001:00007e10       ??0ME_JOINT@@QAE@XZ        00408e10 f   mejoint.obj
 0001:000080b0       ??0ME_JOINT@@QAE@HHPAVME_OBJECT@@0@Z 004090b0 f   mejoint.obj
 0001:00008370       ??0ME_JOINT@@QAE@HPAPAVME_OBJECT@@HPANPAV0@PAVNEURAL_NETWORK@@@Z 00409370 f   mejoint.obj
 0001:00008730       ??0ME_JOINT@@QAE@HPAPAVME_OBJECT@@HPAVifstream@@HPAVNEURAL_NETWORK@@@Z 00409730 f   mejoint.obj
 0001:000089e0       ??1ME_JOINT@@QAE@XZ        004099e0 f   mejoint.obj
 0001:00008a80       ?Actuate@ME_JOINT@@QAEXN@Z 00409a80 f   mejoint.obj
 0001:00008b30       ?Attach@ME_JOINT@@QAEXPAUdxWorld@@@Z 00409b30 f   mejoint.obj
 0001:00008ba0       ?AttachToWorld@ME_JOINT@@QAEXPAUdxWorld@@PAVME_OBJECT@@@Z 00409ba0 f   mejoint.obj
 0001:00008c30       ?AttachesTo@ME_JOINT@@QAEHHH@Z 00409c30 f   mejoint.obj
 0001:00008ca0       ?Break@ME_JOINT@@QAEXXZ    00409ca0 f   mejoint.obj
 0001:00008d10       ?BreakageDesired@ME_JOINT@@QAEHPAVNEURAL_NETWORK@@@Z 00409d10 f   mejoint.obj
 0001:00008d80       ?ComplementaryObj@ME_JOINT@@QAEPAVME_OBJECT@@PAV2@@Z 00409d80 f   mejoint.obj
 0001:00008dc0       ?CreateODEStuff@ME_JOINT@@QAEXPAUdxWorld@@@Z 00409dc0 f   mejoint.obj
 0001:00009330       ?DestroyODEStuff@ME_JOINT@@QAEXXZ 0040a330 f   mejoint.obj
 0001:00009380       ?Display@ME_JOINT@@QAEXXZ  0040a380 f   mejoint.obj
 0001:00009540       ?DrawNormals@ME_JOINT@@QAEXXZ 0040a540 f   mejoint.obj
 0001:00009650       ?Draw@ME_JOINT@@QAEXXZ     0040a650 f   mejoint.obj
 0001:00009740       ?DrawMotorNeurons@ME_JOINT@@QAEXNN@Z 0040a740 f   mejoint.obj
 0001:00009770       ?DrawSensorNeurons@ME_JOINT@@QAEXNN@Z 0040a770 f   mejoint.obj
 0001:000097a0       ?FindPressureSensor@ME_JOINT@@QAEXXZ 0040a7a0 f   mejoint.obj
 0001:00009800       ?GeomTransformPossible@ME_JOINT@@QAEPAVME_OBJECT@@XZ 0040a800 f   mejoint.obj
 0001:00009890       ?GetAngle@ME_JOINT@@QAENXZ 0040a890 f   mejoint.obj
 0001:000098f0       ?GetRelatedJoint@ME_JOINT@@QAEPAV1@XZ 0040a8f0 f   mejoint.obj
 0001:00009920       ?GetRelatedJointName@ME_JOINT@@QAEPADXZ 0040a920 f   mejoint.obj
 0001:00009950       ?IsBreaking@ME_JOINT@@QAEHXZ 0040a950 f   mejoint.obj
 0001:00009980       ?IsMyName@ME_JOINT@@QAEHPAD@Z 0040a980 f   mejoint.obj
 0001:000099d0       ?RecordPressure@ME_JOINT@@QAEXXZ 0040a9d0 f   mejoint.obj
 0001:00009a50       ?RelatedToOtherJoint@ME_JOINT@@QAEHXZ 0040aa50 f   mejoint.obj
 0001:00009aa0       ?Reset@ME_JOINT@@QAEXPAUdxWorld@@@Z 0040aaa0 f   mejoint.obj
 0001:00009af0       ?ResetPosition@ME_JOINT@@QAEXXZ 0040aaf0 f   mejoint.obj
 0001:00009b80       ?Separated@ME_JOINT@@QAEHXZ 0040ab80 f   mejoint.obj
 0001:00009bf0       ?SetOrientationSensor@ME_JOINT@@QAEXXZ 0040abf0 f   mejoint.obj
 0001:00009c70       ?SetRelatedJoint@ME_JOINT@@QAEXPAV1@@Z 0040ac70 f   mejoint.obj
 0001:00009cf0       ?SwitchOnPressureSensor@ME_JOINT@@QAEXPAUdxWorld@@@Z 0040acf0 f   mejoint.obj
 0001:00009ee0       ?UpdateSpring@ME_JOINT@@QAEXXZ 0040aee0 f   mejoint.obj
 0001:0000a2f0       ?ActuateByForce@ME_JOINT@@AAEXN@Z 0040b2f0 f   mejoint.obj
 0001:0000a560       ?ActuateByPosition@ME_JOINT@@AAEXN@Z 0040b560 f   mejoint.obj
 0001:0000a5d0       ?ActuateHinge@ME_JOINT@@AAEXN@Z 0040b5d0 f   mejoint.obj
 0001:0000a690       ?ActuateSlider@ME_JOINT@@AAEXN@Z 0040b690 f   mejoint.obj
 0001:0000a770       ?ActuateByVelocity@ME_JOINT@@AAEXN@Z 0040b770 f   mejoint.obj
 0001:0000a7a0       ?FindObject@ME_JOINT@@AAEPAVME_OBJECT@@PAPAV2@HPAD@Z 0040b7a0 f   mejoint.obj
 0001:0000a840       ?NumberEntered@ME_JOINT@@AAEHPAD@Z 0040b840 f   mejoint.obj
 0001:0000a8a0       ?ReadIn@ME_JOINT@@AAEXPAVifstream@@PAPAVME_OBJECT@@HPAVNEURAL_NETWORK@@@Z 0040b8a0 f   mejoint.obj
 0001:0000b790       ?RecordTorque@ME_JOINT@@AAEXXZ 0040c790 f   mejoint.obj
 0001:0000b820       ??0ME_OBJECT@@QAE@PAUdxWorld@@PAUdxSpace@@@Z 0040c820 f   meobject.obj
 0001:0000ba70       ??0dMass@@QAE@XZ           0040ca70 f i meobject.obj
 0001:0000bab0       ??0ME_OBJECT@@QAE@HPAN0@Z  0040cab0 f   meobject.obj
 0001:0000bcb0       ??0ME_OBJECT@@QAE@PAVAGENT@@PAV0@QANPAVNEURAL_NETWORK@@@Z 0040ccb0 f   meobject.obj
 0001:0000c200       ??0ME_OBJECT@@QAE@PAVAGENT@@HPAVifstream@@HPAVNEURAL_NETWORK@@PAPAV0@@Z 0040d200 f   meobject.obj
 0001:0000c450       ??1ME_OBJECT@@QAE@XZ       0040d450 f   meobject.obj
 0001:0000c550       ?BeyondRange@ME_OBJECT@@QAEHXZ 0040d550 f   meobject.obj
 0001:0000c5f0       ?BreakageDesired@ME_OBJECT@@QAEHPAVNEURAL_NETWORK@@@Z 0040d5f0 f   meobject.obj
 0001:0000c620       ?CloseEnough@ME_OBJECT@@QAEHPAV1@@Z 0040d620 f   meobject.obj
 0001:0000c650       ?CloseEnoughToPlume@ME_OBJECT@@QAEHNN@Z 0040d650 f   meobject.obj
 0001:0000c6b0       ?CountMorphParams@ME_OBJECT@@QAEHH@Z 0040d6b0 f   meobject.obj
 0001:0000c740       ?CreateODEStuff@ME_OBJECT@@QAEXPAUdxWorld@@PAUdxSpace@@@Z 0040d740 f   meobject.obj
 0001:0000cbe0       ?Darken@ME_OBJECT@@QAEXN@Z 0040dbe0 f   meobject.obj
 0001:0000cc90       ?DestroyODEStuff@ME_OBJECT@@QAEXPAUdxSpace@@@Z 0040dc90 f   meobject.obj
 0001:0000cd70       ?DisableContacts@ME_OBJECT@@QAEXXZ 0040dd70 f   meobject.obj
 0001:0000cda0       ?Display@ME_OBJECT@@QAEXXZ 0040dda0 f   meobject.obj
 0001:0000cfb0       ?Draw@ME_OBJECT@@QAEXXZ    0040dfb0 f   meobject.obj
 0001:0000d000       ?DrawSensorNeurons@ME_OBJECT@@QAEXNN@Z 0040e000 f   meobject.obj
 0001:0000d030       ?EvolvableHeight@ME_OBJECT@@QAEHXZ 0040e030 f   meobject.obj
 0001:0000d080       ?EvolvableMass@ME_OBJECT@@QAEHXZ 0040e080 f   meobject.obj
 0001:0000d0d0       ?FindObject@ME_OBJECT@@QAEPAV1@PAPAV1@HPAD@Z 0040e0d0 f   meobject.obj
 0001:0000d170       ?FindOtherObjects@ME_OBJECT@@QAEXHPAPAV1@@Z 0040e170 f   meobject.obj
 0001:0000d3f0       ?GetDistance@ME_OBJECT@@QAENPAV1@@Z 0040e3f0 f   meobject.obj
 0001:0000d4d0       ?GetForward@ME_OBJECT@@QAENXZ 0040e4d0 f   meobject.obj
 0001:0000d520       ?GetHeight@ME_OBJECT@@QAENXZ 0040e520 f   meobject.obj
 0001:0000d590       ?GetLeft@ME_OBJECT@@QAENXZ 0040e590 f   meobject.obj
 0001:0000d5e0       ?GetPosAndRot@ME_OBJECT@@QAEXPAN0@Z 0040e5e0 f   meobject.obj
 0001:0000d7f0       _dMULTIPLY0_331            0040e7f0 f i meobject.obj
 0001:0000d860       _dDOT                      0040e860 f i meobject.obj
 0001:0000d8b0       _dMULTIPLY0_333            0040e8b0 f i meobject.obj
 0001:0000d9d0       _dDOT14                    0040e9d0 f i meobject.obj
 0001:0000da20       ?IncreasePerturbation@ME_OBJECT@@QAEXN@Z 0040ea20 f   meobject.obj
 0001:0000da90       ?IntroduceNoise@ME_OBJECT@@QAEXXZ 0040ea90 f   meobject.obj
 0001:0000db60       ?InvertColour@ME_OBJECT@@QAEXXZ 0040eb60 f   meobject.obj
 0001:0000db90       ?IsBelow@ME_OBJECT@@QAEHN@Z 0040eb90 f   meobject.obj
 0001:0000dc00       ?IsInside@ME_OBJECT@@QAEXPAV1@PAN@Z 0040ec00 f   meobject.obj
 0001:0000dd40       ?IsPartOfEnvironment@ME_OBJECT@@QAEHXZ 0040ed40 f   meobject.obj
 0001:0000dd80       ?Lighten@ME_OBJECT@@QAEXXZ 0040ed80 f   meobject.obj
 0001:0000de30       ?PartOfDebris@ME_OBJECT@@QAEHXZ 0040ee30 f   meobject.obj
 0001:0000de70       ?Push@ME_OBJECT@@QAEXNNN@Z 0040ee70 f   meobject.obj
 0001:0000df60       ?RecordTouchdown@ME_OBJECT@@QAEXPAN@Z 0040ef60 f   meobject.obj
 0001:0000dfd0       ?Reposition@ME_OBJECT@@QAEXNNN@Z 0040efd0 f   meobject.obj
 0001:0000e030       ?RequiresGeneticSpecification@ME_OBJECT@@QAEHXZ 0040f030 f   meobject.obj
 0001:0000e0a0       ?Reset@ME_OBJECT@@QAEXXZ   0040f0a0 f   meobject.obj
 0001:0000e0f0       ?Reset@ME_OBJECT@@QAEXPAUdxWorld@@PAUdxSpace@@@Z 0040f0f0 f   meobject.obj
 0001:0000e150       ?SaveToRaytracerFile@ME_OBJECT@@QAEXPAVofstream@@@Z 0040f150 f   meobject.obj
 0001:0000e600       ??6ostream@@QAEAAV0@M@Z    0040f600 f i meobject.obj
 0001:0000e650       ?SetColour@ME_OBJECT@@QAEXMMM@Z 0040f650 f   meobject.obj
 0001:0000e6a0       ?SetEvolvableParams@ME_OBJECT@@QAEXHHPAN@Z 0040f6a0 f   meobject.obj
 0001:0000e7e0       ?SetParamsBasedOnOtherObjects@ME_OBJECT@@QAEXXZ 0040f7e0 f   meobject.obj
 0001:0000ead0       ?SetOrientationSensors@ME_OBJECT@@QAEXXZ 0040fad0 f   meobject.obj
 0001:0000eda0       ?SetPressureSensor@ME_OBJECT@@QAEXXZ 0040fda0 f   meobject.obj
 0001:0000ee00       ?SwitchToGeomTransform@ME_OBJECT@@QAEXPAV1@PAUdxSpace@@@Z 0040fe00 f   meobject.obj
 0001:0000f1f0       ?ToggleFootprintDrawing@ME_OBJECT@@QAEXXZ 004101f0 f   meobject.obj
 0001:0000f2f0       ?TouchingGround@ME_OBJECT@@QAEXQAN@Z 004102f0 f   meobject.obj
 0001:0000f390       ?AdjustHeight@ME_OBJECT@@AAEXN@Z 00410390 f   meobject.obj
 0001:0000f410       ?AdjustMass@ME_OBJECT@@AAEXN@Z 00410410 f   meobject.obj
 0001:0000f560       ?AdjustRotation@ME_OBJECT@@AAEXXZ 00410560 f   meobject.obj
 0001:0000f5e0       ?AdjustX@ME_OBJECT@@AAEXN@Z 004105e0 f   meobject.obj
 0001:0000f670       ?AdjustY@ME_OBJECT@@AAEXN@Z 00410670 f   meobject.obj
 0001:0000f700       ?AdjustZ@ME_OBJECT@@AAEXN@Z 00410700 f   meobject.obj
 0001:0000f790       ?Draw@ME_OBJECT@@AAEXPAUdxGeom@@PBN1@Z 00410790 f   meobject.obj
 0001:0000f940       ?InvertRotation@ME_OBJECT@@AAEXPAN0@Z 00410940 f   meobject.obj
 0001:0000faa0       ?LockHeightTo@ME_OBJECT@@AAEXXZ 00410aa0 f   meobject.obj
 0001:0000fae0       ?LockMassTo@ME_OBJECT@@AAEXXZ 00410ae0 f   meobject.obj
 0001:0000fba0       ?NumberEntered@ME_OBJECT@@AAEHPAD@Z 00410ba0 f   meobject.obj
 0001:0000fc00       ?ReadIn@ME_OBJECT@@AAEXPAVifstream@@PAVNEURAL_NETWORK@@PAPAV1@@Z 00410c00 f   meobject.obj
 0001:00010790       ?RotToAxisAndAngle@ME_OBJECT@@AAEXPAN00@Z 00411790 f   meobject.obj
 0001:000108c0       ?SetColour@ME_OBJECT@@AAEXXZ 004118c0 f   meobject.obj
 0001:00010980       ?SetDefaultProperties@ME_OBJECT@@AAEXXZ 00411980 f   meobject.obj
 0001:00010ac0       ?SetLightSourceProperties@ME_OBJECT@@AAEXXZ 00411ac0 f   meobject.obj
 0001:00010b70       ?locase@@YADD@Z            00411b70 f   MorphEngine.obj
 0001:00010bb0       ?SetViewpoint@@YAXXZ       00411bb0 f   MorphEngine.obj
 0001:00010c20       ?Tick@@YAXHH@Z             00411c20 f   MorphEngine.obj
 0001:00011180       ?InitializeODE@@YAXHPAPAD@Z 00412180 f   MorphEngine.obj
 0001:000114c0       _main                      004124c0 f   MorphEngine.obj
 0001:00011680       ??_GENVIRONMENT@@QAEPAXI@Z 00412680 f i MorphEngine.obj
 0001:000116e0       ??_GSIM_PARAMS@@QAEPAXI@Z  004126e0 f i MorphEngine.obj
 0001:00011740       ??0NEURAL_NETWORK@@QAE@XZ  00412740 f   nnetwork.obj
 0001:000117e0       ??1NEURAL_NETWORK@@QAE@XZ  004127e0 f   nnetwork.obj
 0001:000119c0       ?AddMotor@NEURAL_NETWORK@@QAEHXZ 004129c0 f   nnetwork.obj
 0001:00011a00       ?AddSensor@NEURAL_NETWORK@@QAEHXZ 00412a00 f   nnetwork.obj
 0001:00011a40       ?GetMotorCommand@NEURAL_NETWORK@@QAENH@Z 00412a40 f   nnetwork.obj
 0001:00011a90       ?GetSensorValue@NEURAL_NETWORK@@QAENH@Z 00412a90 f   nnetwork.obj
 0001:00011ae0       ?Init@NEURAL_NETWORK@@QAEXPAVifstream@@@Z 00412ae0 f   nnetwork.obj
 0001:00011dc0       ?Print@NEURAL_NETWORK@@QAEXXZ 00412dc0 f   nnetwork.obj
 0001:00011e00       ?UpdateSensorValue@NEURAL_NETWORK@@QAEXNH@Z 00412e00 f   nnetwork.obj
 0001:00011e50       ?Update@NEURAL_NETWORK@@QAEXXZ 00412e50 f   nnetwork.obj
 0001:00011e90       ?PrintValues@NEURAL_NETWORK@@AAEXXZ 00412e90 f   nnetwork.obj
 0001:00011ee0       ?PrintWeights@NEURAL_NETWORK@@AAEXXZ 00412ee0 f   nnetwork.obj
 0001:00011f30       ?UpdateHiddenValues@NEURAL_NETWORK@@AAEXXZ 00412f30 f   nnetwork.obj
 0001:000120e0       ?UpdateOutputValues@NEURAL_NETWORK@@AAEXXZ 004130e0 f   nnetwork.obj
 0001:00012210       ??0PLUME@@QAE@N@Z          00413210 f   plume.obj
 0001:000123c0       ??1PLUME@@QAE@XZ           004133c0 f   plume.obj
 0001:00012480       ??_GPLUME_POINT@@QAEPAXI@Z 00413480 f i plume.obj
 0001:000124e0       ?ChangePtSource@PLUME@@QAEXH@Z 004134e0 f   plume.obj
 0001:00012570       ?DistToPtSource@PLUME@@QAENNN@Z 00413570 f   plume.obj
 0001:000125f0       ?Draw@PLUME@@QAEXXZ        004135f0 f   plume.obj
 0001:000126a0       ?GetConcAt@PLUME@@QAENNN@Z 004136a0 f   plume.obj
 0001:00012780       ?Reset@PLUME@@QAEXXZ       00413780 f   plume.obj
 0001:00012920       ?CalculatePtDists@PLUME@@AAEXXZ 00413920 f   plume.obj
 0001:00012a80       ?WriteToFile@PLUME@@AAEXXZ 00413a80 f   plume.obj
 0001:00012b40       ??0PLUME_POINT@@QAE@HHNN@Z 00413b40 f   plumePoint.obj
 0001:00012bc0       ??1PLUME_POINT@@QAE@XZ     00413bc0 f   plumePoint.obj
 0001:00012bf0       ?CalcDistFromPtSource@PLUME_POINT@@QAEXNN@Z 00413bf0 f   plumePoint.obj
 0001:00012c70       ?Draw@PLUME_POINT@@QAEXNNN@Z 00413c70 f   plumePoint.obj
 0001:00012eb0       ?Write@PLUME_POINT@@QAEXPAVofstream@@@Z 00413eb0 f   plumePoint.obj
 0001:00012f00       ??0SIM_PARAMS@@QAE@HPAPAD@Z 00413f00 f   simParams.obj
 0001:000131c0       ??_Difstream@@QAEXXZ       004141c0 f i simParams.obj
 0001:00013210       ??1SIM_PARAMS@@QAE@XZ      00414210 f   simParams.obj
 0001:00013370       ?AngleBetween@SIM_PARAMS@@QAENPAN0@Z 00414370 f   simParams.obj
 0001:000133f0       ?CloseFiles@SIM_PARAMS@@QAEXXZ 004143f0 f   simParams.obj
 0001:00013580       ?CloseOutputFiles@SIM_PARAMS@@QAEXXZ 00414580 f   simParams.obj
 0001:000138f0       ?Cross@SIM_PARAMS@@QAEXPAN00@Z 004148f0 f   simParams.obj
 0001:00013980       ?DestroyMotorCommands@SIM_PARAMS@@QAEXXZ 00414980 f   simParams.obj
 0001:00013a50       ?DistBetween@SIM_PARAMS@@QAENPAN0@Z 00414a50 f   simParams.obj
 0001:00013ae0       ?Dot@SIM_PARAMS@@QAENPAN0@Z 00414ae0 f   simParams.obj
 0001:00013b30       ?FileDelete@SIM_PARAMS@@QAEXPAD@Z 00414b30 f   simParams.obj
 0001:00013b90       ?FileExists@SIM_PARAMS@@QAEHPAD@Z 00414b90 f   simParams.obj
 0001:00013cb0       ?good@ios@@QBEHXZ          00414cb0 f i simParams.obj
 0001:00013cf0       ?FileRename@SIM_PARAMS@@QAEXPAD0@Z 00414cf0 f   simParams.obj
 0001:00013d60       ?FlipCoin@SIM_PARAMS@@QAEHXZ 00414d60 f   simParams.obj
 0001:00013dd0       ?GetMotorCommands@SIM_PARAMS@@QAEXXZ 00414dd0 f   simParams.obj
 0001:00013ec0       ?MagnitudeOfVector@SIM_PARAMS@@QAENPAN@Z 00414ec0 f   simParams.obj
 0001:00013f30       ?Normalize@SIM_PARAMS@@QAEXPAN@Z 00414f30 f   simParams.obj
 0001:00013fa0       ?OpenFiles@SIM_PARAMS@@QAEXXZ 00414fa0 f   simParams.obj
 0001:00014160       ?Rand@SIM_PARAMS@@QAENNN@Z 00415160 f   simParams.obj
 0001:000141c0       ?RandInt@SIM_PARAMS@@QAEHHH@Z 004151c0 f   simParams.obj
 0001:00014220       ?Scale@SIM_PARAMS@@QAENNNNNN@Z 00415220 f   simParams.obj
 0001:00014280       ?SetDefaultRotation@SIM_PARAMS@@QAEXPAN@Z 00415280 f   simParams.obj
 0001:00014340       ?VectAdd@SIM_PARAMS@@QAEXPAN00@Z 00415340 f   simParams.obj
 0001:000143a0       ?VectMult@SIM_PARAMS@@QAEXPANN@Z 004153a0 f   simParams.obj
 0001:00014400       ?VectSub@SIM_PARAMS@@QAEXPAN00@Z 00415400 f   simParams.obj
 0001:00014460       ?WriteToNoiseFile@SIM_PARAMS@@QAEXN@Z 00415460 f   simParams.obj
 0001:00014540       ?OpenOutputFiles@SIM_PARAMS@@AAEXXZ 00415540 f   simParams.obj
 0001:00014910       ?ParseParameters@SIM_PARAMS@@AAEXHPAPAD@Z 00415910 f   simParams.obj
 0001:00014b10       ?PrintHelp@SIM_PARAMS@@AAEXXZ 00415b10 f   simParams.obj
 0001:00014c80       ??0TRAJECTORY@@QAE@H@Z     00415c80 f   trajectory.obj
 0001:00014d20       ??1TRAJECTORY@@QAE@XZ      00415d20 f   trajectory.obj
 0001:00014db0       ?Draw@TRAJECTORY@@QAEXNNN@Z 00415db0 f   trajectory.obj
 0001:00014de0       ?Reset@TRAJECTORY@@QAEXXZ  00415de0 f   trajectory.obj
 0001:00014e70       ?Store@TRAJECTORY@@QAEXHNNN@Z 00415e70 f   trajectory.obj
 0001:00014ee0       ??0DEBRIS@@QAE@HNN@Z       00415ee0 f   debris.obj
 0001:00014fc0       ??1DEBRIS@@QAE@XZ          00415fc0 f   debris.obj
 0001:00015070       ?CreateODEStuff@DEBRIS@@QAEXPAUdxWorld@@PAUdxSpace@@@Z 00416070 f   debris.obj
 0001:00015100       ?DestroyODEStuff@DEBRIS@@QAEXPAUdxSpace@@@Z 00416100 f   debris.obj
 0001:00015170       ?Draw@DEBRIS@@QAEXXZ       00416170 f   debris.obj
 0001:000151d0       ?Move@DEBRIS@@QAEXPAUdxWorld@@PAUdxSpace@@PANNN@Z 004161d0 f   debris.obj
 0001:00015210       ?CreateEmbeddedRubble@DEBRIS@@AAEXXZ 00416210 f   debris.obj
 0001:00015290       ?CreateLooseRubble@DEBRIS@@AAEXXZ 00416290 f   debris.obj
 0001:00015450       ?CreateFixedRubble@DEBRIS@@AAEXXZ 00416450 f   debris.obj
 0001:00015540       ?CreateRamp@DEBRIS@@AAEXXZ 00416540 f   debris.obj
 0001:00015740       ?CreateUnevenFloor@DEBRIS@@AAEXNN@Z 00416740 f   debris.obj
 0001:000159c0       ?GetCentreOfMass@DEBRIS@@AAEXPAN@Z 004169c0 f   debris.obj
 0001:00015ac0       ?RecordDebris@DEBRIS@@AAEXXZ 00416ac0 f   debris.obj
 0001:00015c00       ?RollLeft@DEBRIS@@AAEXPAUdxWorld@@PAUdxSpace@@@Z 00416c00 f   debris.obj
 0001:00015d30       ?RollRight@DEBRIS@@AAEXPAUdxWorld@@PAUdxSpace@@@Z 00416d30 f   debris.obj
 0001:00015e60       _dCollide                  00416e60 f   ode:collision_kernel.obj
 0001:00015f20       ??0dxGeom@@QAE@PAUdxSpace@@H@Z 00416f20 f   ode:collision_kernel.obj
 0001:00016210       ??_GdxGeom@@UAEPAXI@Z      00417210 f i ode:collision_kernel.obj
 0001:00016210       ??_EdxGeom@@UAEPAXI@Z      00417210 f i ode:collision_kernel.obj
 0001:00016230       ??1dxGeom@@UAE@XZ          00417230 f   ode:collision_kernel.obj
 0001:00016280       ?AABBTest@dxGeom@@UAEHPAU1@QAN@Z 00417280 f   ode:collision_kernel.obj
 0001:00016290       ?bodyRemove@dxGeom@@QAEXXZ 00417290 f   ode:collision_kernel.obj
 0001:000162d0       _dGeomGetBodyNext          004172d0 f   ode:collision_kernel.obj
 0001:000162e0       _dGeomDestroy              004172e0 f   ode:collision_kernel.obj
 0001:000162f0       _dGeomSetData              004172f0 f   ode:collision_kernel.obj
 0001:00016300       _dGeomGetData              00417300 f   ode:collision_kernel.obj
 0001:00016310       _dGeomSetBody              00417310 f   ode:collision_kernel.obj
 0001:000163b0       _dGeomGetBody              004173b0 f   ode:collision_kernel.obj
 0001:000163c0       _dGeomSetPosition          004173c0 f   ode:collision_kernel.obj
 0001:00016440       _dGeomSetRotation          00417440 f   ode:collision_kernel.obj
 0001:00016480       _dGeomSetQuaternion        00417480 f   ode:collision_kernel.obj
 0001:000164c0       _dGeomGetPosition          004174c0 f   ode:collision_kernel.obj
 0001:000164d0       _dGeomGetRotation          004174d0 f   ode:collision_kernel.obj
 0001:000164e0       _dGeomGetQuaternion        004174e0 f   ode:collision_kernel.obj
 0001:00016540       _dGeomGetAABB              00417540 f   ode:collision_kernel.obj
 0001:00016570       _dGeomIsSpace              00417570 f   ode:collision_kernel.obj
 0001:00016590       _dGeomGetSpace             00417590 f   ode:collision_kernel.obj
 0001:000165a0       _dGeomGetClass             004175a0 f   ode:collision_kernel.obj
 0001:000165b0       _dGeomSetCategoryBits      004175b0 f   ode:collision_kernel.obj
 0001:000165c0       _dGeomSetCollideBits       004175c0 f   ode:collision_kernel.obj
 0001:000165d0       _dGeomGetCategoryBits      004175d0 f   ode:collision_kernel.obj
 0001:000165e0       _dGeomGetCollideBits       004175e0 f   ode:collision_kernel.obj
 0001:000165f0       _dGeomEnable               004175f0 f   ode:collision_kernel.obj
 0001:00016600       _dGeomDisable              00417600 f   ode:collision_kernel.obj
 0001:00016610       _dGeomIsEnabled            00417610 f   ode:collision_kernel.obj
 0001:00016620       ??0dxUserGeom@@QAE@H@Z     00417620 f   ode:collision_kernel.obj
 0001:00016670       ??_EdxUserGeom@@UAEPAXI@Z  00417670 f i ode:collision_kernel.obj
 0001:00016670       ??_GdxUserGeom@@UAEPAXI@Z  00417670 f i ode:collision_kernel.obj
 0001:00016690       ??1dxUserGeom@@UAE@XZ      00417690 f   ode:collision_kernel.obj
 0001:000166e0       ?computeAABB@dxUserGeom@@UAEXXZ 004176e0 f   ode:collision_kernel.obj
 0001:00016700       ?AABBTest@dxUserGeom@@UAEHPAUdxGeom@@QAN@Z 00417700 f   ode:collision_kernel.obj
 0001:00016740       _dCreateGeomClass          00417740 f   ode:collision_kernel.obj
 0001:00016840       _dGeomGetClassData         00417840 f   ode:collision_kernel.obj
 0001:00016850       _dCreateGeom               00417850 f   ode:collision_kernel.obj
 0001:00016870       _dCloseODE                 00417870 f   ode:collision_kernel.obj
 0001:00016880       ?dWorldCheck@@YAXPAUdxWorld@@@Z 00417880 f   ode:ode.obj
 0001:00016b50       _dBodyCreate               00417b50 f   ode:ode.obj
 0001:00016cb0       _dBodyDestroy              00417cb0 f   ode:ode.obj
 0001:00016da0       _dBodySetData              00417da0 f   ode:ode.obj
 0001:00016db0       _dBodyGetData              00417db0 f   ode:ode.obj
 0001:00016dc0       _dBodySetPosition          00417dc0 f   ode:ode.obj
 0001:00016e20       _dBodySetRotation          00417e20 f   ode:ode.obj
 0001:00016ed0       _dBodySetQuaternion        00417ed0 f   ode:ode.obj
 0001:00016f60       _dBodySetLinearVel         00417f60 f   ode:ode.obj
 0001:00016fa0       _dBodySetAngularVel        00417fa0 f   ode:ode.obj
 0001:00016fe0       _dBodyGetPosition          00417fe0 f   ode:ode.obj
 0001:00016ff0       _dBodyGetRotation          00417ff0 f   ode:ode.obj
 0001:00017000       _dBodyGetQuaternion        00418000 f   ode:ode.obj
 0001:00017010       _dBodyGetLinearVel         00418010 f   ode:ode.obj
 0001:00017020       _dBodyGetAngularVel        00418020 f   ode:ode.obj
 0001:00017030       _dBodySetMass              00418030 f   ode:ode.obj
 0001:00017080       _dBodyGetMass              00418080 f   ode:ode.obj
 0001:000170a0       _dBodyAddForce             004180a0 f   ode:ode.obj
 0001:000170e0       _dBodyAddTorque            004180e0 f   ode:ode.obj
 0001:00017120       _dBodyAddRelForce          00418120 f   ode:ode.obj
 0001:000171d0       _dBodyAddRelTorque         004181d0 f   ode:ode.obj
 0001:00017280       _dBodyAddForceAtPos        00418280 f   ode:ode.obj
 0001:00017320       _dBodyAddForceAtRelPos     00418320 f   ode:ode.obj
 0001:00017410       _dBodyAddRelForceAtPos     00418410 f   ode:ode.obj
 0001:00017520       _dBodyAddRelForceAtRelPos  00418520 f   ode:ode.obj
 0001:00017670       _dBodyGetForce             00418670 f   ode:ode.obj
 0001:00017680       _dBodyGetTorque            00418680 f   ode:ode.obj
 0001:00017690       _dBodySetForce             00418690 f   ode:ode.obj
 0001:000176d0       _dBodySetTorque            004186d0 f   ode:ode.obj
 0001:00017710       _dBodyGetRelPointPos       00418710 f   ode:ode.obj
 0001:000177b0       _dBodyGetRelPointVel       004187b0 f   ode:ode.obj
 0001:000178a0       _dBodyGetPointVel          004188a0 f   ode:ode.obj
 0001:00017940       _dBodyGetPosRelPoint       00418940 f   ode:ode.obj
 0001:000179d0       _dBodyVectorToWorld        004189d0 f   ode:ode.obj
 0001:00017a50       _dBodyVectorFromWorld      00418a50 f   ode:ode.obj
 0001:00017ad0       _dBodySetFiniteRotationMode 00418ad0 f   ode:ode.obj
 0001:00017b30       _dBodySetFiniteRotationAxis 00418b30 f   ode:ode.obj
 0001:00017bc0       _dBodyGetFiniteRotationMode 00418bc0 f   ode:ode.obj
 0001:00017bd0       _dBodyGetFiniteRotationAxis 00418bd0 f   ode:ode.obj
 0001:00017c10       _dBodyGetNumJoints         00418c10 f   ode:ode.obj
 0001:00017c30       _dBodyGetJoint             00418c30 f   ode:ode.obj
 0001:00017c60       _dBodyEnable               00418c60 f   ode:ode.obj
 0001:00017c70       _dBodyDisable              00418c70 f   ode:ode.obj
 0001:00017c80       _dBodyIsEnabled            00418c80 f   ode:ode.obj
 0001:00017c90       _dBodySetGravityMode       00418c90 f   ode:ode.obj
 0001:00017cb0       _dBodyGetGravityMode       00418cb0 f   ode:ode.obj
 0001:00017cc0       _dJointCreateBall          00418cc0 f   ode:ode.obj
 0001:00017db0       _dJointCreateHinge         00418db0 f   ode:ode.obj
 0001:00017dd0       _dJointCreateSlider        00418dd0 f   ode:ode.obj
 0001:00017df0       _dJointCreateContact       00418df0 f   ode:ode.obj
 0001:00017e20       _dJointCreateHinge2        00418e20 f   ode:ode.obj
 0001:00017e40       _dJointCreateUniversal     00418e40 f   ode:ode.obj
 0001:00017e60       _dJointCreateFixed         00418e60 f   ode:ode.obj
 0001:00017e80       _dJointCreateNull          00418e80 f   ode:ode.obj
 0001:00017ea0       _dJointCreateAMotor        00418ea0 f   ode:ode.obj
 0001:00017ec0       _dJointDestroy             00418ec0 f   ode:ode.obj
 0001:00017f10       _dJointGroupCreate         00418f10 f   ode:ode.obj
 0001:00017f40       _dJointGroupDestroy        00418f40 f   ode:ode.obj
 0001:00017f70       _dJointGroupEmpty          00418f70 f   ode:ode.obj
 0001:00018030       _dJointAttach              00419030 f   ode:ode.obj
 0001:000180b0       _dJointSetData             004190b0 f   ode:ode.obj
 0001:000180c0       _dJointGetData             004190c0 f   ode:ode.obj
 0001:000180d0       _dJointGetType             004190d0 f   ode:ode.obj
 0001:000180e0       _dJointGetBody             004190e0 f   ode:ode.obj
 0001:00018100       _dJointSetFeedback         00419100 f   ode:ode.obj
 0001:00018110       _dJointGetFeedback         00419110 f   ode:ode.obj
 0001:00018120       _dAreConnected             00419120 f   ode:ode.obj
 0001:00018150       _dAreConnectedExcluding    00419150 f   ode:ode.obj
 0001:00018190       _dWorldCreate              00419190 f   ode:ode.obj
 0001:000181e0       _dWorldDestroy             004191e0 f   ode:ode.obj
 0001:00018260       _dWorldSetGravity          00419260 f   ode:ode.obj
 0001:00018290       _dWorldGetGravity          00419290 f   ode:ode.obj
 0001:000182c0       _dWorldSetERP              004192c0 f   ode:ode.obj
 0001:000182d0       _dWorldGetERP              004192d0 f   ode:ode.obj
 0001:000182e0       _dWorldSetCFM              004192e0 f   ode:ode.obj
 0001:000182f0       _dWorldGetCFM              004192f0 f   ode:ode.obj
 0001:00018300       _dWorldStep                00419300 f   ode:ode.obj
 0001:000184e0       _dWorldImpulseToForce      004194e0 f   ode:ode.obj
 0001:00018510       _dTestDataStructures       00419510 f   ode:ode.obj
 0001:00018760       ??0dxSphere@@QAE@PAUdxSpace@@N@Z 00419760 f   ode:collision_std.obj
 0001:00018790       ??_GdxSphere@@UAEPAXI@Z    00419790 f i ode:collision_std.obj
 0001:00018790       ??_EdxSphere@@UAEPAXI@Z    00419790 f i ode:collision_std.obj
 0001:000187b0       ?computeAABB@dxSphere@@UAEXXZ 004197b0 f   ode:collision_std.obj
 0001:000187f0       _dCreateSphere             004197f0 f   ode:collision_std.obj
 0001:00018820       _dGeomSphereSetRadius      00419820 f   ode:collision_std.obj
 0001:00018840       _dGeomSphereGetRadius      00419840 f   ode:collision_std.obj
 0001:00018850       _dGeomSpherePointDepth     00419850 f   ode:collision_std.obj
 0001:00018890       ??0dxBox@@QAE@PAUdxSpace@@NNN@Z 00419890 f   ode:collision_std.obj
 0001:000188e0       ??_EdxBox@@UAEPAXI@Z       004198e0 f i ode:collision_std.obj
 0001:000188e0       ??_GdxBox@@UAEPAXI@Z       004198e0 f i ode:collision_std.obj
 0001:00018910       ?computeAABB@dxBox@@UAEXXZ 00419910 f   ode:collision_std.obj
 0001:000189c0       _dCreateBox                004199c0 f   ode:collision_std.obj
 0001:00018a00       _dGeomBoxSetLengths        00419a00 f   ode:collision_std.obj
 0001:00018a30       _dGeomBoxGetLengths        00419a30 f   ode:collision_std.obj
 0001:00018a60       _dGeomBoxPointDepth        00419a60 f   ode:collision_std.obj
 0001:00018b40       ??0dxCCylinder@@QAE@PAUdxSpace@@NN@Z 00419b40 f   ode:collision_std.obj
 0001:00018b80       ??_GdxCCylinder@@UAEPAXI@Z 00419b80 f i ode:collision_std.obj
 0001:00018b80       ??_EdxCCylinder@@UAEPAXI@Z 00419b80 f i ode:collision_std.obj
 0001:00018ba0       ?computeAABB@dxCCylinder@@UAEXXZ 00419ba0 f   ode:collision_std.obj
 0001:00018c20       _dCreateCCylinder          00419c20 f   ode:collision_std.obj
 0001:00018c60       _dGeomCCylinderSetParams   00419c60 f   ode:collision_std.obj
 0001:00018c90       _dGeomCCylinderGetParams   00419c90 f   ode:collision_std.obj
 0001:00018cc0       _dGeomCCylinderPointDepth  00419cc0 f   ode:collision_std.obj
 0001:00018d80       ??0dxPlane@@QAE@PAUdxSpace@@NNNN@Z 00419d80 f   ode:collision_std.obj
 0001:00018e80       ??_EdxPlane@@UAEPAXI@Z     00419e80 f i ode:collision_std.obj
 0001:00018e80       ??_GdxPlane@@UAEPAXI@Z     00419e80 f i ode:collision_std.obj
 0001:00018eb0       ?computeAABB@dxPlane@@UAEXXZ 00419eb0 f   ode:collision_std.obj
 0001:00018f10       _dCreatePlane              00419f10 f   ode:collision_std.obj
 0001:00018f60       _dGeomPlaneSetParams       00419f60 f   ode:collision_std.obj
 0001:00018fb0       _dGeomPlaneGetParams       00419fb0 f   ode:collision_std.obj
 0001:00018ff0       _dGeomPlanePointDepth      00419ff0 f   ode:collision_std.obj
 0001:00019020       ??0dxRay@@QAE@PAUdxSpace@@N@Z 0041a020 f   ode:collision_std.obj
 0001:00019050       ??_EdxRay@@UAEPAXI@Z       0041a050 f i ode:collision_std.obj
 0001:00019050       ??_GdxRay@@UAEPAXI@Z       0041a050 f i ode:collision_std.obj
 0001:00019070       ?computeAABB@dxRay@@UAEXXZ 0041a070 f   ode:collision_std.obj
 0001:00019130       _dCreateRay                0041a130 f   ode:collision_std.obj
 0001:00019160       _dGeomRaySetLength         0041a160 f   ode:collision_std.obj
 0001:00019180       _dGeomRayGetLength         0041a180 f   ode:collision_std.obj
 0001:00019190       _dGeomRaySet               0041a190 f   ode:collision_std.obj
 0001:000191f0       _dGeomRayGet               0041a1f0 f   ode:collision_std.obj
 0001:00019260       _dGeomRaySetParams         0041a260 f   ode:collision_std.obj
 0001:000192b0       _dGeomRayGetParams         0041a2b0 f   ode:collision_std.obj
 0001:000192e0       _dCreateGeomGroup          0041a2e0 f   ode:collision_std.obj
 0001:00019300       _dGeomGroupAdd             0041a300 f   ode:collision_std.obj
 0001:00019320       _dGeomGroupRemove          0041a320 f   ode:collision_std.obj
 0001:00019340       _dGeomGroupGetNumGeoms     0041a340 f   ode:collision_std.obj
 0001:00019350       _dGeomGroupGetGeom         0041a350 f   ode:collision_std.obj
 0001:00019370       _dGeomGroupQuery           0041a370 f   ode:collision_std.obj
 0001:00019390       ?cullPoints@@YAXHQANHHQAH@Z 0041a390 f   ode:collision_std.obj
 0001:000195a0       ?dBoxBox@@YAHQBN00000QANPANPAHHPAUdContactGeom@@H@Z 0041a5a0 f   ode:collision_std.obj
 0001:0001b300       ?dCollideSphereSphere@@YAHPAUdxGeom@@0HPAUdContactGeom@@H@Z 0041c300 f   ode:collision_std.obj
 0001:0001b340       ?dCollideSphereBox@@YAHPAUdxGeom@@0HPAUdContactGeom@@H@Z 0041c340 f   ode:collision_std.obj
 0001:0001b700       ?dCollideSpherePlane@@YAHPAUdxGeom@@0HPAUdContactGeom@@H@Z 0041c700 f   ode:collision_std.obj
 0001:0001b7a0       ?dCollideBoxBox@@YAHPAUdxGeom@@0HPAUdContactGeom@@H@Z 0041c7a0 f   ode:collision_std.obj
 0001:0001b840       ?dCollideBoxPlane@@YAHPAUdxGeom@@0HPAUdContactGeom@@H@Z 0041c840 f   ode:collision_std.obj
 0001:0001bf20       ?dCollideCCylinderSphere@@YAHPAUdxGeom@@0HPAUdContactGeom@@H@Z 0041cf20 f   ode:collision_std.obj
 0001:0001bff0       ?dCollideCCylinderBox@@YAHPAUdxGeom@@0HPAUdContactGeom@@H@Z 0041cff0 f   ode:collision_std.obj
 0001:0001c0c0       ?dCollideCCylinderCCylinder@@YAHPAUdxGeom@@0HPAUdContactGeom@@H@Z 0041d0c0 f   ode:collision_std.obj
 0001:0001c5b0       ?dCollideCCylinderPlane@@YAHPAUdxGeom@@0HPAUdContactGeom@@H@Z 0041d5b0 f   ode:collision_std.obj
 0001:0001c7e0       ?dCollideRaySphere@@YAHPAUdxGeom@@0HPAUdContactGeom@@H@Z 0041d7e0 f   ode:collision_std.obj
 0001:0001c9e0       ?dCollideRayBox@@YAHPAUdxGeom@@0HPAUdContactGeom@@H@Z 0041d9e0 f   ode:collision_std.obj
 0001:0001cd50       ?dCollideRayCCylinder@@YAHPAUdxGeom@@0HPAUdContactGeom@@H@Z 0041dd50 f   ode:collision_std.obj
 0001:0001d160       ?dCollideRayPlane@@YAHPAUdxGeom@@0HPAUdContactGeom@@H@Z 0041e160 f   ode:collision_std.obj
 0001:0001d270       _dGeomMoved                0041e270 f   ode:collision_space.obj
 0001:0001d2c0       ??0dxSpace@@QAE@PAU0@@Z    0041e2c0 f   ode:collision_space.obj
 0001:0001d300       ??_GdxSpace@@UAEPAXI@Z     0041e300 f i ode:collision_space.obj
 0001:0001d300       ??_EdxSpace@@UAEPAXI@Z     0041e300 f i ode:collision_space.obj
 0001:0001d330       ??1dxSpace@@UAE@XZ         0041e330 f   ode:collision_space.obj
 0001:0001d390       ?computeAABB@dxSpace@@UAEXXZ 0041e390 f   ode:collision_space.obj
 0001:0001d490       ?setCleanup@dxSpace@@QAEXH@Z 0041e490 f   ode:collision_space.obj
 0001:0001d4b0       ?getCleanup@dxSpace@@QAEHXZ 0041e4b0 f   ode:collision_space.obj
 0001:0001d4c0       ?query@dxSpace@@QAEHPAUdxGeom@@@Z 0041e4c0 f   ode:collision_space.obj
 0001:0001d4e0       ?getNumGeoms@dxSpace@@QAEHXZ 0041e4e0 f   ode:collision_space.obj
 0001:0001d4f0       ?getGeom@dxSpace@@UAEPAUdxGeom@@H@Z 0041e4f0 f   ode:collision_space.obj
 0001:0001d540       ?add@dxSpace@@UAEXPAUdxGeom@@@Z 0041e540 f   ode:collision_space.obj
 0001:0001d590       ?remove@dxSpace@@UAEXPAUdxGeom@@@Z 0041e590 f   ode:collision_space.obj
 0001:0001d5d0       ?dirty@dxSpace@@UAEXPAUdxGeom@@@Z 0041e5d0 f   ode:collision_space.obj
 0001:0001d610       ??0dxSimpleSpace@@QAE@PAUdxSpace@@@Z 0041e610 f   ode:collision_space.obj
 0001:0001d630       ??_GdxSimpleSpace@@UAEPAXI@Z 0041e630 f i ode:collision_space.obj
 0001:0001d630       ??_EdxSimpleSpace@@UAEPAXI@Z 0041e630 f i ode:collision_space.obj
 0001:0001d660       ?cleanGeoms@dxSimpleSpace@@UAEXXZ 0041e660 f   ode:collision_space.obj
 0001:0001d6c0       ?collide@dxSimpleSpace@@UAEXPAXP6AX0PAUdxGeom@@1@Z@Z 0041e6c0 f   ode:collision_space.obj
 0001:0001d7f0       ?collide2@dxSimpleSpace@@UAEXPAXPAUdxGeom@@P6AX011@Z@Z 0041e7f0 f   ode:collision_space.obj
 0001:0001d870       ??0dxHashSpace@@QAE@PAUdxSpace@@@Z 0041e870 f   ode:collision_space.obj
 0001:0001d8b0       ??_GdxHashSpace@@UAEPAXI@Z 0041e8b0 f i ode:collision_space.obj
 0001:0001d8b0       ??_EdxHashSpace@@UAEPAXI@Z 0041e8b0 f i ode:collision_space.obj
 0001:0001d8e0       ?setLevels@dxHashSpace@@QAEXHH@Z 0041e8e0 f   ode:collision_space.obj
 0001:0001d900       ?cleanGeoms@dxHashSpace@@UAEXXZ 0041e900 f   ode:collision_space.obj
 0001:0001d960       ?collide@dxHashSpace@@UAEXPAXP6AX0PAUdxGeom@@1@Z@Z 0041e960 f   ode:collision_space.obj
 0001:0001de90       ?collide2@dxHashSpace@@UAEXPAXPAUdxGeom@@P6AX011@Z@Z 0041ee90 f   ode:collision_space.obj
 0001:0001deb0       _dSimpleSpaceCreate        0041eeb0 f   ode:collision_space.obj
 0001:0001dee0       _dHashSpaceCreate          0041eee0 f   ode:collision_space.obj
 0001:0001df10       _dHashSpaceSetLevels       0041ef10 f   ode:collision_space.obj
 0001:0001df30       _dSpaceDestroy             0041ef30 f   ode:collision_space.obj
 0001:0001df40       _dSpaceSetCleanup          0041ef40 f   ode:collision_space.obj
 0001:0001df50       _dSpaceGetCleanup          0041ef50 f   ode:collision_space.obj
 0001:0001df60       _dSpaceAdd                 0041ef60 f   ode:collision_space.obj
 0001:0001df70       _dSpaceRemove              0041ef70 f   ode:collision_space.obj
 0001:0001df80       _dSpaceQuery               0041ef80 f   ode:collision_space.obj
 0001:0001df90       _dSpaceGetNumGeoms         0041ef90 f   ode:collision_space.obj
 0001:0001dfa0       _dSpaceGetGeom             0041efa0 f   ode:collision_space.obj
 0001:0001dfb0       _dSpaceCollide             0041efb0 f   ode:collision_space.obj
 0001:0001dfd0       _dSpaceCollide2            0041efd0 f   ode:collision_space.obj
 0001:0001e0d0       ?init@dxJointLimitMotor@@QAEXPAUdxWorld@@@Z 0041f0d0 f   ode:joint.obj
 0001:0001e140       ?set@dxJointLimitMotor@@QAEXHN@Z 0041f140 f   ode:joint.obj
 0001:0001e270       ?get@dxJointLimitMotor@@QAENH@Z 0041f270 f   ode:joint.obj
 0001:0001e2f0       ?testRotationalLimit@dxJointLimitMotor@@QAEHN@Z 0041f2f0 f   ode:joint.obj
 0001:0001e350       ?addLimot@dxJointLimitMotor@@QAEHPAUdxJoint@@PAUInfo2@2@HQANH@Z 0041f350 f   ode:joint.obj
 0001:0001eba0       _dJointSetBallAnchor       0041fba0 f   ode:joint.obj
 0001:0001ed30       _dJointGetBallAnchor       0041fd30 f   ode:joint.obj
 0001:0001eef0       _dJointGetBallAnchor2      0041fef0 f   ode:joint.obj
 0001:0001f680       _dJointSetHingeAnchor      00420680 f   ode:joint.obj
 0001:0001f730       _dJointSetHingeAxis        00420730 f   ode:joint.obj
 0001:0001f8f0       _dJointGetHingeAnchor      004208f0 f   ode:joint.obj
 0001:0001f920       _dJointGetHingeAnchor2     00420920 f   ode:joint.obj
 0001:0001f950       _dJointGetHingeAxis        00420950 f   ode:joint.obj
 0001:0001f9f0       _dJointSetHingeParam       004209f0 f   ode:joint.obj
 0001:0001fa10       _dJointGetHingeParam       00420a10 f   ode:joint.obj
 0001:0001fa30       _dJointGetHingeAngle       00420a30 f   ode:joint.obj
 0001:0001fa60       _dJointGetHingeAngleRate   00420a60 f   ode:joint.obj
 0001:0001fba0       _dJointGetSliderPosition   00420ba0 f   ode:joint.obj
 0001:0001fd00       _dJointGetSliderPositionRate 00420d00 f   ode:joint.obj
 0001:00020590       _dJointSetSliderAxis       00421590 f   ode:joint.obj
 0001:00020700       _dJointGetSliderAxis       00421700 f   ode:joint.obj
 0001:00020720       _dJointSetSliderParam      00421720 f   ode:joint.obj
 0001:00020740       _dJointGetSliderParam      00421740 f   ode:joint.obj
 0001:00021ad0       _dJointSetHinge2Anchor     00422ad0 f   ode:joint.obj
 0001:00021df0       _dJointSetHinge2Axis1      00422df0 f   ode:joint.obj
 0001:00022010       _dJointSetHinge2Axis2      00423010 f   ode:joint.obj
 0001:00022230       _dJointSetHinge2Param      00423230 f   ode:joint.obj
 0001:000222b0       _dJointGetHinge2Anchor     004232b0 f   ode:joint.obj
 0001:000222e0       _dJointGetHinge2Anchor2    004232e0 f   ode:joint.obj
 0001:00022310       _dJointGetHinge2Axis1      00423310 f   ode:joint.obj
 0001:000223a0       _dJointGetHinge2Axis2      004233a0 f   ode:joint.obj
 0001:00022440       _dJointGetHinge2Param      00423440 f   ode:joint.obj
 0001:000224a0       _dJointGetHinge2Angle1     004234a0 f   ode:joint.obj
 0001:000224c0       _dJointGetHinge2Angle1Rate 004234c0 f   ode:joint.obj
 0001:000225b0       _dJointGetHinge2Angle2Rate 004235b0 f   ode:joint.obj
 0001:00022fe0       _dJointSetUniversalAnchor  00423fe0 f   ode:joint.obj
 0001:00023160       _dJointSetUniversalAxis1   00424160 f   ode:joint.obj
 0001:000231e0       _dJointSetUniversalAxis2   004241e0 f   ode:joint.obj
 0001:00023260       _dJointGetUniversalAnchor  00424260 f   ode:joint.obj
 0001:00023290       _dJointGetUniversalAnchor2 00424290 f   ode:joint.obj
 0001:000232c0       _dJointGetUniversalAxis1   004242c0 f   ode:joint.obj
 0001:000233b0       _dJointGetUniversalAxis2   004243b0 f   ode:joint.obj
 0001:000233f0       _dJointSetUniversalParam   004243f0 f   ode:joint.obj
 0001:00023440       _dJointGetUniversalParam   00424440 f   ode:joint.obj
 0001:00023480       _dJointGetUniversalAngle1  00424480 f   ode:joint.obj
 0001:000234a0       _dJointGetUniversalAngle2  004244a0 f   ode:joint.obj
 0001:000234c0       _dJointGetUniversalAngle1Rate 004244c0 f   ode:joint.obj
 0001:00023560       _dJointGetUniversalAngle2Rate 00424560 f   ode:joint.obj
 0001:00023cb0       _dJointSetAMotorNumAxes    00424cb0 f   ode:joint.obj
 0001:00023ce0       _dJointSetAMotorAxis       00424ce0 f   ode:joint.obj
 0001:00023f70       _dJointSetAMotorAngle      00424f70 f   ode:joint.obj
 0001:00023fb0       _dJointSetAMotorParam      00424fb0 f   ode:joint.obj
 0001:00023ff0       _dJointSetAMotorMode       00424ff0 f   ode:joint.obj
 0001:00024010       _dJointGetAMotorNumAxes    00425010 f   ode:joint.obj
 0001:00024020       _dJointGetAMotorAxis       00425020 f   ode:joint.obj
 0001:00024140       _dJointGetAMotorAxisRel    00425140 f   ode:joint.obj
 0001:00024170       _dJointGetAMotorAngle      00425170 f   ode:joint.obj
 0001:000241a0       _dJointGetAMotorAngleRate  004251a0 f   ode:joint.obj
 0001:000241c0       _dJointGetAMotorParam      004251c0 f   ode:joint.obj
 0001:00024200       _dJointGetAMotorMode       00425200 f   ode:joint.obj
 0001:00024570       _dJointSetFixed            00425570 f   ode:joint.obj
 0001:000246a0       _dMassSetZero              004256a0 f   ode:mass.obj
 0001:000246d0       _dMassSetParameters        004256d0 f   ode:mass.obj
 0001:00024990       _dMassSetSphere            00425990 f   ode:mass.obj
 0001:000249d0       _dMassSetSphereTotal       004259d0 f   ode:mass.obj
 0001:00024a10       _dMassSetCappedCylinder    00425a10 f   ode:mass.obj
 0001:00024ab0       _dMassSetCappedCylinderTotal 00425ab0 f   ode:mass.obj
 0001:00024af0       _dMassSetCylinder          00425af0 f   ode:mass.obj
 0001:00024b40       _dMassSetCylinderTotal     00425b40 f   ode:mass.obj
 0001:00024ba0       _dMassSetBox               00425ba0 f   ode:mass.obj
 0001:00024bf0       _dMassSetBoxTotal          00425bf0 f   ode:mass.obj
 0001:00024c60       _dMassAdjust               00425c60 f   ode:mass.obj
 0001:00024ca0       _dMassTranslate            00425ca0 f   ode:mass.obj
 0001:00025080       _dMassRotate               00426080 f   ode:mass.obj
 0001:000252c0       _dMassAdd                  004262c0 f   ode:mass.obj
 0001:00025320       _dRSetIdentity             00426320 f   ode:rotation.obj
 0001:00025380       _dRFromAxisAndAngle        00426380 f   ode:rotation.obj
 0001:000253d0       _dRFromEulerAngles         004263d0 f   ode:rotation.obj
 0001:00025480       _dRFrom2Axes               00426480 f   ode:rotation.obj
 0001:000255d0       _dRFromZAxis               004265d0 f   ode:rotation.obj
 0001:000256b0       _dQSetIdentity             004266b0 f   ode:rotation.obj
 0001:000256e0       _dQFromAxisAndAngle        004266e0 f   ode:rotation.obj
 0001:00025770       _dQMultiply0               00426770 f   ode:rotation.obj
 0001:00025800       _dQMultiply1               00426800 f   ode:rotation.obj
 0001:00025890       _dQMultiply2               00426890 f   ode:rotation.obj
 0001:00025920       _dQMultiply3               00426920 f   ode:rotation.obj
 0001:000259b0       _dQtoR                     004269b0 f   ode:rotation.obj
 0001:00025a80       _dRtoQ                     00426a80 f   ode:rotation.obj
 0001:00025c00       _dWtoDQ                    00426c00 f   ode:rotation.obj
 0001:00025c90       ??0dxGeomTransform@@QAE@PAUdxSpace@@@Z 00426c90 f   ode:collision_transform.obj
 0001:00025ce0       ??_GdxGeomTransform@@UAEPAXI@Z 00426ce0 f i ode:collision_transform.obj
 0001:00025ce0       ??_EdxGeomTransform@@UAEPAXI@Z 00426ce0 f i ode:collision_transform.obj
 0001:00025d10       ??1dxGeomTransform@@UAE@XZ 00426d10 f   ode:collision_transform.obj
 0001:00025d40       ?computeAABB@dxGeomTransform@@UAEXXZ 00426d40 f   ode:collision_transform.obj
 0001:00025db0       ?computeFinalTx@dxGeomTransform@@QAEXXZ 00426db0 f   ode:collision_transform.obj
 0001:00025f30       ?dCollideTransform@@YAHPAUdxGeom@@0HPAUdContactGeom@@H@Z 00426f30 f   ode:collision_transform.obj
 0001:00025fe0       _dCreateGeomTransform      00426fe0 f   ode:collision_transform.obj
 0001:00026010       _dGeomTransformSetGeom     00427010 f   ode:collision_transform.obj
 0001:00026050       _dGeomTransformGetGeom     00427050 f   ode:collision_transform.obj
 0001:00026060       _dGeomTransformSetCleanup  00427060 f   ode:collision_transform.obj
 0001:00026070       _dGeomTransformGetCleanup  00427070 f   ode:collision_transform.obj
 0001:00026080       _dGeomTransformSetInfo     00427080 f   ode:collision_transform.obj
 0001:00026090       _dGeomTransformGetInfo     00427090 f   ode:collision_transform.obj
 0001:000260a0       _dSetZero                  004270a0 f   ode:matrix.obj
 0001:000260c0       _dSetValue                 004270c0 f   ode:matrix.obj
 0001:000260f0       _dMultiply0                004270f0 f   ode:matrix.obj
 0001:000261c0       _dMultiply1                004271c0 f   ode:matrix.obj
 0001:000262a0       _dMultiply2                004272a0 f   ode:matrix.obj
 0001:00026350       _dFactorCholesky           00427350 f   ode:matrix.obj
 0001:00026480       _dSolveCholesky            00427480 f   ode:matrix.obj
 0001:000265e0       _dInvertPDMatrix           004275e0 f   ode:matrix.obj
 0001:00026710       _dIsPositiveDefinite       00427710 f   ode:matrix.obj
 0001:00026770       _dVectorScale              00427770 f   ode:matrix.obj
 0001:000267a0       _dSolveLDLT                004277a0 f   ode:matrix.obj
 0001:000267e0       _dLDLTAddTL                004277e0 f   ode:matrix.obj
 0001:00026a80       _dLDLTRemove               00427a80 f   ode:matrix.obj
 0001:00026cb0       _dRemoveRowCol             00427cb0 f   ode:matrix.obj
 0001:00026de0       _dSetAllocHandler          00427de0 f   ode:memory.obj
 0001:00026df0       _dSetReallocHandler        00427df0 f   ode:memory.obj
 0001:00026e00       _dSetFreeHandler           00427e00 f   ode:memory.obj
 0001:00026e10       _dGetAllocHandler          00427e10 f   ode:memory.obj
 0001:00026e20       _dGetReallocHandler        00427e20 f   ode:memory.obj
 0001:00026e30       _dGetFreeHandler           00427e30 f   ode:memory.obj
 0001:00026e40       _dAlloc                    00427e40 f   ode:memory.obj
 0001:00026e70       _dRealloc                  00427e70 f   ode:memory.obj
 0001:00026eb0       _dFree                     00427eb0 f   ode:memory.obj
 0001:00026ee0       _dAllocDontReport          00427ee0 f   ode:memory.obj
 0001:00026ef0       _dSetErrorHandler          00427ef0 f   ode:error.obj
 0001:00026f00       _dSetDebugHandler          00427f00 f   ode:error.obj
 0001:00026f10       _dSetMessageHandler        00427f10 f   ode:error.obj
 0001:00026f20       _dGetErrorHandler          00427f20 f   ode:error.obj
 0001:00026f30       _dGetDebugHandler          00427f30 f   ode:error.obj
 0001:00026f40       _dGetMessageHandler        00427f40 f   ode:error.obj
 0001:00026f50       _dError                    00427f50 f   ode:error.obj
 0001:00026fe0       _dDebug                    00427fe0 f   ode:error.obj
 0001:00027070       _dMessage                  00428070 f   ode:error.obj
 0001:00027140       _dNormalize3               00428140 f   ode:odemath.obj
 0001:00027330       _dNormalize4               00428330 f   ode:odemath.obj
 0001:000273b0       _dPlaneSpace               004283b0 f   ode:odemath.obj
 0001:00027480       ??0dObStack@@QAE@XZ        00428480 f   ode:obstack.obj
 0001:00027490       ??1dObStack@@QAE@XZ        00428490 f   ode:obstack.obj
 0001:000274b0       ?alloc@dObStack@@QAEPAXH@Z 004284b0 f   ode:obstack.obj
 0001:00027580       ?freeAll@dObStack@@QAEXXZ  00428580 f   ode:obstack.obj
 0001:000275b0       ?rewind@dObStack@@QAEPAXXZ 004285b0 f   ode:obstack.obj
 0001:000275e0       ?next@dObStack@@QAEPAXH@Z  004285e0 f   ode:obstack.obj
 0001:00027640       ?dInternalStepIsland_x1@@YAXPAUdxWorld@@PBQAUdxBody@@HPBQAUdxJoint@@HN@Z 00428640 f   ode:step.obj
 0001:00028990       ?dInternalStepIsland_x2@@YAXPAUdxWorld@@PBQAUdxBody@@HPBQAUdxJoint@@HN@Z 00429990 f   ode:step.obj
 0001:0002a5d0       ?dInternalStepIsland@@YAXPAUdxWorld@@PBQAUdxBody@@HPBQAUdxJoint@@HN@Z 0042b5d0 f   ode:step.obj
 0001:0002a600       _dRand                     0042b600 f   ode:misc.obj
 0001:0002a620       _dRandGetSeed              0042b620 f   ode:misc.obj
 0001:0002a630       _dRandSetSeed              0042b630 f   ode:misc.obj
 0001:0002a640       _dTestRand                 0042b640 f   ode:misc.obj
 0001:0002a6b0       _dRandInt                  0042b6b0 f   ode:misc.obj
 0001:0002a6e0       _dRandReal                 0042b6e0 f   ode:misc.obj
 0001:0002a710       _dPrintMatrix              0042b710 f   ode:misc.obj
 0001:0002a7a0       _dMakeRandomVector         0042b7a0 f   ode:misc.obj
 0001:0002a7d0       _dMakeRandomMatrix         0042b7d0 f   ode:misc.obj
 0001:0002a850       _dClearUpperTriangle       0042b850 f   ode:misc.obj
 0001:0002a8b0       _dMaxDifference            0042b8b0 f   ode:misc.obj
 0001:0002a940       _dMaxDifferenceLowerTriangle 0042b940 f   ode:misc.obj
 0001:0002a9c0       ?dCollideSpheres@@YAHQANN0NPAUdContactGeom@@@Z 0042b9c0 f   ode:collision_util.obj
 0001:0002aaf0       ?dLineClosestApproach@@YAXQBN000PAN1@Z 0042baf0 f   ode:collision_util.obj
 0001:0002abd0       _dClosestLineSegmentPoints 0042bbd0 f   ode:collision_util.obj
 0001:0002b3f0       ?dClosestLineBoxPoints@@YAXQBN0000QAN1@Z 0042c3f0 f   ode:collision_util.obj
 0001:0002b8c0       _dBoxTouchesBox            0042c8c0 f   ode:collision_util.obj
 0001:0002bf80       _dInfiniteAABB             0042cf80 f   ode:collision_util.obj
 0001:0002bfe0       _dSolveL1T                 0042cfe0 f   ode:fastltsolve.obj
 0001:0002c30e       _dSolveL1                  0042d30e f   ode:fastlsolve.obj
 0001:0002c7f8       _dDot                      0042d7f8 f   ode:fastdot.obj
 0001:0002c860       ??0dLCP@@QAE@HHPAN0000000000PAH111PAPAN@Z 0042d860 f   ode:lcp.obj
 0001:0002cd50       ?transfer_i_to_C@dLCP@@QAEXH@Z 0042dd50 f   ode:lcp.obj
 0001:0002ce20       ?transfer_i_from_N_to_C@dLCP@@QAEXH@Z 0042de20 f   ode:lcp.obj
 0001:0002cfb0       ?transfer_i_from_C_to_N@dLCP@@QAEXH@Z 0042dfb0 f   ode:lcp.obj
 0001:0002d0a0       ?pN_equals_ANC_times_qC@dLCP@@QAEXPAN0@Z 0042e0a0 f   ode:lcp.obj
 0001:0002d0f0       ?pN_plusequals_ANi@dLCP@@QAEXPANHH@Z 0042e0f0 f   ode:lcp.obj
 0001:0002d160       ?solve1@dLCP@@QAEXPANHHH@Z 0042e160 f   ode:lcp.obj
 0001:0002d2d0       ?unpermute@dLCP@@QAEXXZ    0042e2d0 f   ode:lcp.obj
 0001:0002d390       ?dSolveLCPBasic@@YAXHPAN000H00@Z 0042e390 f   ode:lcp.obj
 0001:0002d810       ?dSolveLCP@@YAXHPAN000H00PAH@Z 0042e810 f   ode:lcp.obj
 0001:0002e0c0       _dTestSolveLCP             0042f0c0 f   ode:lcp.obj
 0001:0002e580       _dFactorLDLT               0042f580 f   ode:fastldlt.obj
 0001:0002ec00       _dTimerResolution          0042fc00 f   ode:timer.obj
 0001:0002ec10       _dTimerTicksPerSecond      0042fc10 f   ode:timer.obj
 0001:0002ec50       _dStopwatchReset           0042fc50 f   ode:timer.obj
 0001:0002ec70       _dStopwatchStart           0042fc70 f   ode:timer.obj
 0001:0002eca0       _dStopwatchStop            0042fca0 f   ode:timer.obj
 0001:0002ecf0       _dStopwatchTime            0042fcf0 f   ode:timer.obj
 0001:0002ed00       _dTimerStart               0042fd00 f   ode:timer.obj
 0001:0002ed80       _dTimerNow                 0042fd80 f   ode:timer.obj
 0001:0002edd0       _dTimerEnd                 0042fdd0 f   ode:timer.obj
 0001:0002ee20       _dTimerReport              0042fe20 f   ode:timer.obj
 0001:0002f160       ??0Image@@QAE@PAD@Z        00430160 f   drawstuff:drawstuff.obj
 0001:0002f360       ??1Image@@QAE@XZ           00430360 f   drawstuff:drawstuff.obj
 0001:0002f370       ??0Texture@@QAE@PAD@Z      00430370 f   drawstuff:drawstuff.obj
 0001:0002f470       ??1Texture@@QAE@XZ         00430470 f   drawstuff:drawstuff.obj
 0001:0002f4a0       ?bind@Texture@@QAEXH@Z     004304a0 f   drawstuff:drawstuff.obj
 0001:0002f4e0       ?dsMotion@@YAXHHH@Z        004304e0 f   drawstuff:drawstuff.obj
 0001:0002f620       ?dsStartGraphics@@YAXHHPAUdsFunctions@@@Z 00430620 f   drawstuff:drawstuff.obj
 0001:0002f7d0       ?dsStopGraphics@@YAXXZ     004307d0 f   drawstuff:drawstuff.obj
 0001:0002f840       ?dsDrawFrame@@YAXHHPAUdsFunctions@@H@Z 00430840 f   drawstuff:drawstuff.obj
 0001:0002ffe0       ?dsGetShadows@@YAHXZ       00430fe0 f   drawstuff:drawstuff.obj
 0001:0002fff0       ?dsSetShadows@@YAXH@Z      00430ff0 f   drawstuff:drawstuff.obj
 0001:00030010       ?dsGetTextures@@YAHXZ      00431010 f   drawstuff:drawstuff.obj
 0001:00030020       ?dsSetTextures@@YAXH@Z     00431020 f   drawstuff:drawstuff.obj
 0001:00030040       _dsSimulationLoop          00431040 f   drawstuff:drawstuff.obj
 0001:00030200       _dsSetViewpoint            00431200 f   drawstuff:drawstuff.obj
 0001:00030260       _dsGetViewpoint            00431260 f   drawstuff:drawstuff.obj
 0001:000302c0       _dsSetTexture              004312c0 f   drawstuff:drawstuff.obj
 0001:000302f0       _dsSetColor                004312f0 f   drawstuff:drawstuff.obj
 0001:00030330       _dsSetColorAlpha           00431330 f   drawstuff:drawstuff.obj
 0001:00030370       _dsDrawBox                 00431370 f   drawstuff:drawstuff.obj
 0001:000308f0       _dsDrawSphere              004318f0 f   drawstuff:drawstuff.obj
 0001:00030e00       _dsDrawTriangle            00431e00 f   drawstuff:drawstuff.obj
 0001:00030f80       _dsDrawCylinder            00431f80 f   drawstuff:drawstuff.obj
 0001:000313d0       _dsDrawCappedCylinder      004323d0 f   drawstuff:drawstuff.obj
 0001:00031970       _dsDrawLine                00432970 f   drawstuff:drawstuff.obj
 0001:000319f0       _dsDrawBoxD                004329f0 f   drawstuff:drawstuff.obj
 0001:00031a60       _dsDrawSphereD             00432a60 f   drawstuff:drawstuff.obj
 0001:00031ac0       _dsDrawTriangleD           00432ac0 f   drawstuff:drawstuff.obj
 0001:00031b30       _dsDrawCylinderD           00432b30 f   drawstuff:drawstuff.obj
 0001:00031b90       _dsDrawCappedCylinderD     00432b90 f   drawstuff:drawstuff.obj
 0001:00031bf0       _dsDrawLineD               00432bf0 f   drawstuff:drawstuff.obj
 0001:00031c50       _dsSetSphereQuality        00432c50 f   drawstuff:drawstuff.obj
 0001:00031c60       _dsSetCappedCylinderQuality 00432c60 f   drawstuff:drawstuff.obj
 0001:00031c70       _dsError                   00432c70 f   drawstuff:windows.obj
 0001:00031cd0       _dsDebug                   00432cd0 f   drawstuff:windows.obj
 0001:00031cf0       _dsPrint                   00432cf0 f   drawstuff:windows.obj
 0001:00031d10       ?dsPlatformSimLoop@@YAXHHPAUdsFunctions@@H@Z 00432d10 f   drawstuff:windows.obj
 0001:00032710       _dsStop                    00433710 f   drawstuff:windows.obj
 0001:00032730       _WinMain@16                00433730 f   drawstuff:windows.obj
 0001:00032750       _glTexEnvf@12              00433750 f   OpenGL32:OPENGL32.dll
 0001:00032756       _glTexParameterf@12        00433756 f   OpenGL32:OPENGL32.dll
 0001:0003275c       _glPixelStorei@8           0043375c f   OpenGL32:OPENGL32.dll
 0001:00032762       _glBindTexture@8           00433762 f   OpenGL32:OPENGL32.dll
 0001:00032768       _glGenTextures@8           00433768 f   OpenGL32:OPENGL32.dll
 0001:0003276e       _glDeleteTextures@8        0043376e f   OpenGL32:OPENGL32.dll
 0001:00032774       _glTexEnvi@12              00433774 f   OpenGL32:OPENGL32.dll
 0001:0003277a       _glClear@4                 0043377a f   OpenGL32:OPENGL32.dll
 0001:00032780       _glClearColor@16           00433780 f   OpenGL32:OPENGL32.dll
 0001:00032786       _glColor3f@12              00433786 f   OpenGL32:OPENGL32.dll
 0001:0003278c       _glLightfv@12              0043378c f   OpenGL32:OPENGL32.dll
 0001:00032792       _glFrustum@48              00433792 f   OpenGL32:OPENGL32.dll
 0001:00032798       _glLoadIdentity@0          00433798 f   OpenGL32:OPENGL32.dll
 0001:0003279e       _glMatrixMode@4            0043379e f   OpenGL32:OPENGL32.dll
 0001:000327a4       _glViewport@16             004337a4 f   OpenGL32:OPENGL32.dll
 0001:000327aa       _glFrontFace@4             004337aa f   OpenGL32:OPENGL32.dll
 0001:000327b0       _glCullFace@4              004337b0 f   OpenGL32:OPENGL32.dll
 0001:000327b6       _glDepthFunc@4             004337b6 f   OpenGL32:OPENGL32.dll
 0001:000327bc       _glShadeModel@4            004337bc f   OpenGL32:OPENGL32.dll
 0001:000327c2       _glDisable@4               004337c2 f   OpenGL32:OPENGL32.dll
 0001:000327c8       _glEnable@4                004337c8 f   OpenGL32:OPENGL32.dll
 0001:000327ce       _glTranslatef@12           004337ce f   OpenGL32:OPENGL32.dll
 0001:000327d4       _glRotatef@16              004337d4 f   OpenGL32:OPENGL32.dll
 0001:000327da       _glMaterialf@12            004337da f   OpenGL32:OPENGL32.dll
 0001:000327e0       _glMaterialfv@12           004337e0 f   OpenGL32:OPENGL32.dll
 0001:000327e6       _glEnd@0                   004337e6 f   OpenGL32:OPENGL32.dll
 0001:000327ec       _glVertex3f@12             004337ec f   OpenGL32:OPENGL32.dll
 0001:000327f2       _glTexCoord2f@8            004337f2 f   OpenGL32:OPENGL32.dll
 0001:000327f8       _glNormal3f@12             004337f8 f   OpenGL32:OPENGL32.dll
 0001:000327fe       _glBegin@4                 004337fe f   OpenGL32:OPENGL32.dll
 0001:00032804       _glPopMatrix@0             00433804 f   OpenGL32:OPENGL32.dll
 0001:0003280a       _glPushMatrix@0            0043380a f   OpenGL32:OPENGL32.dll
 0001:00032810       _glDepthRange@16           00433810 f   OpenGL32:OPENGL32.dll
 0001:00032816       _glMultMatrixf@4           00433816 f   OpenGL32:OPENGL32.dll
 0001:0003281c       _glBlendFunc@8             0043381c f   OpenGL32:OPENGL32.dll
 0001:00032822       _glTexGenfv@12             00433822 f   OpenGL32:OPENGL32.dll
 0001:00032828       _glTexGeni@12              00433828 f   OpenGL32:OPENGL32.dll
 0001:0003282e       _glScaled@24               0043382e f   OpenGL32:OPENGL32.dll
 0001:00032834       _glCallList@4              00433834 f   OpenGL32:OPENGL32.dll
 0001:0003283a       _glEndList@0               0043383a f   OpenGL32:OPENGL32.dll
 0001:00032840       _glNewList@8               00433840 f   OpenGL32:OPENGL32.dll
 0001:00032846       _glGenLists@4              00433846 f   OpenGL32:OPENGL32.dll
 0001:0003284c       _glVertex3fv@4             0043384c f   OpenGL32:OPENGL32.dll
 0001:00032852       _glNormal3fv@4             00433852 f   OpenGL32:OPENGL32.dll
 0001:00032858       _glVertex3d@24             00433858 f   OpenGL32:OPENGL32.dll
 0001:0003285e       _glNormal3d@24             0043385e f   OpenGL32:OPENGL32.dll
 0001:00032864       _glLineWidth@4             00433864 f   OpenGL32:OPENGL32.dll
 0001:0003286a       _wglDeleteContext@4        0043386a f   OpenGL32:OPENGL32.dll
 0001:00032870       _glGetIntegerv@8           00433870 f   OpenGL32:OPENGL32.dll
 0001:00032876       _wglMakeCurrent@8          00433876 f   OpenGL32:OPENGL32.dll
 0001:0003287c       _wglCreateContext@4        0043387c f   OpenGL32:OPENGL32.dll
 0001:00032882       _gluBuild2DMipmaps@28      00433882 f   Glu32:GLU32.dll
 0001:00032888       _QueryPerformanceFrequency@4 00433888 f   kernel32:KERNEL32.dll
 0001:0003288e       _QueryPerformanceCounter@4 0043388e f   kernel32:KERNEL32.dll
 0001:00032894       _CloseHandle@4             00433894 f   kernel32:KERNEL32.dll
 0001:0003289a       _GetExitCodeThread@8       0043389a f   kernel32:KERNEL32.dll
 0001:000328a0       _WaitForSingleObject@8     004338a0 f   kernel32:KERNEL32.dll
 0001:000328a6       _CreateThread@24           004338a6 f   kernel32:KERNEL32.dll
 0001:000328ac       _SetConsoleTitleA@4        004338ac f   kernel32:KERNEL32.dll
 0001:000328b2       _AllocConsole@0            004338b2 f   kernel32:KERNEL32.dll
 0001:000328b8       _FreeConsole@0             004338b8 f   kernel32:KERNEL32.dll
 0001:000328be       _GetModuleHandleA@4        004338be f   kernel32:KERNEL32.dll
 0001:000328c4       _Sleep@4                   004338c4 f   kernel32:KERNEL32.dll
 0001:000328ca       _GetTickCount@0            004338ca f   kernel32:KERNEL32.dll
 0001:000328d0       _GetCurrentProcessId@0     004338d0 f   kernel32:KERNEL32.dll
 0001:000328d6       _MessageBoxA@16            004338d6 f   user32:USER32.dll
 0001:000328dc       _DestroyWindow@4           004338dc f   user32:USER32.dll
 0001:000328e2       _DispatchMessageA@4        004338e2 f   user32:USER32.dll
 0001:000328e8       _TranslateAcceleratorA@12  004338e8 f   user32:USER32.dll
 0001:000328ee       _TranslateMessage@4        004338ee f   user32:USER32.dll
 0001:000328f4       _GetMessageA@16            004338f4 f   user32:USER32.dll
 0001:000328fa       _GetDC@4                   004338fa f   user32:USER32.dll
 0001:00032900       _ShowWindow@8              00433900 f   user32:USER32.dll
 0001:00032906       _CreateWindowExA@48        00433906 f   user32:USER32.dll
 0001:0003290c       _AdjustWindowRect@12       0043390c f   user32:USER32.dll
 0001:00032912       _LoadAcceleratorsA@8       00433912 f   user32:USER32.dll
 0001:00032918       _RegisterClassA@4          00433918 f   user32:USER32.dll
 0001:0003291e       _LoadCursorA@8             0043391e f   user32:USER32.dll
 0001:00032924       _LoadIconA@8               00433924 f   user32:USER32.dll
 0001:0003292a       _BringWindowToTop@4        0043392a f   user32:USER32.dll
 0001:00032930       _DefWindowProcA@16         00433930 f   user32:USER32.dll
 0001:00032936       _ReleaseCapture@0          00433936 f   user32:USER32.dll
 0001:0003293c       _SetCapture@4              0043393c f   user32:USER32.dll
 0001:00032942       _CheckMenuItem@12          00433942 f   user32:USER32.dll
 0001:00032948       _GetMenu@4                 00433948 f   user32:USER32.dll
 0001:0003294e       _DialogBoxParamA@20        0043394e f   user32:USER32.dll
 0001:00032954       _PostQuitMessage@4         00433954 f   user32:USER32.dll
 0001:0003295a       _EndDialog@8               0043395a f   user32:USER32.dll
 0001:00032960       _FindWindowA@8             00433960 f   user32:USER32.dll
 0001:00032966       _wsprintfA                 00433966 f   user32:USER32.dll
 0001:0003296c       _PostMessageA@16           0043396c f   user32:USER32.dll
 0001:00032972       _SetPixelFormat@12         00433972 f   gdi32:GDI32.dll
 0001:00032978       _ChoosePixelFormat@8       00433978 f   gdi32:GDI32.dll
 0001:0003297e       _SwapBuffers@4             0043397e f   gdi32:GDI32.dll
 0001:00032990       ??5istream@@QAEAAV0@AAH@Z  00433990 f   libcid:istrint.obj
 0001:00032a60       ?isfx@istream@@QAEXXZ      00433a60 f i libcid:istrint.obj
 0001:00032aa0       ?unlock@ios@@QAAXXZ        00433aa0 f i libcid:istrint.obj
 0001:00032ab0       ?unlockbuf@ios@@QAAXXZ     00433ab0 f i libcid:istrint.obj
 0001:00032ac0       ??0istream@@IAE@XZ         00433ac0 f   libcid:istream.obj
 0001:00032b50       ??_Gistream@@UAEPAXI@Z     00433b50 f i libcid:istream.obj
 0001:00032b50       ??_Eistream@@UAEPAXI@Z     00433b50 f i libcid:istream.obj
 0001:00032b90       ??_Distream@@QAEXXZ        00433b90 f i libcid:istream.obj
 0001:00032bc0       ??0istream@@QAE@PAVstreambuf@@@Z 00433bc0 f   libcid:istream.obj
 0001:00032c90       ??0istream@@IAE@ABV0@@Z    00433c90 f   libcid:istream.obj
 0001:00032d70       ?rdbuf@ios@@QBEPAVstreambuf@@XZ 00433d70 f i libcid:istream.obj
 0001:00032d90       ??1istream@@UAE@XZ         00433d90 f   libcid:istream.obj
 0001:00032db0       ??4istream@@IAEAAV0@PAVstreambuf@@@Z 00433db0 f   libcid:istream.obj
 0001:00032ef0       ?delbuf@ios@@QBEHXZ        00433ef0 f i libcid:istream.obj
 0001:00032f10       ?delbuf@ios@@QAEXH@Z       00433f10 f i libcid:istream.obj
 0001:00032f30       ?ipfx@istream@@QAEHH@Z     00433f30 f   libcid:istream.obj
 0001:00033090       ?lock@ios@@QAAXXZ          00434090 f i libcid:istream.obj
 0001:000330a0       ?lockbuf@ios@@QAAXXZ       004340a0 f i libcid:istream.obj
 0001:000330b0       ?in_avail@streambuf@@QBEHXZ 004340b0 f i libcid:istream.obj
 0001:000330f0       ?gptr@streambuf@@IBEPADXZ  004340f0 f i libcid:istream.obj
 0001:00033110       ??5istream@@QAEAAV0@PAD@Z  00434110 f   libcid:istream.obj
 0001:00033280       ?peek@istream@@QAEHXZ      00434280 f   libcid:istream.obj
 0001:000332d0       ?putback@istream@@QAEAAV1@D@Z 004342d0 f   libcid:istream.obj
 0001:00033360       ?sputbackc@streambuf@@QAEHD@Z 00434360 f i libcid:istream.obj
 0001:000333c0       ?clear@ios@@QAEXH@Z        004343c0 f i libcid:istream.obj
 0001:000333f0       ?sync@istream@@QAEHXZ      004343f0 f   libcid:istream.obj
 0001:00033480       ?eatwhite@istream@@QAEXXZ  00434480 f   libcid:istream.obj
 0001:00033530       ??0istream_withassign@@QAE@XZ 00434530 f   libcid:istream.obj
 0001:000335c0       ??_Eistream_withassign@@UAEPAXI@Z 004345c0 f i libcid:istream.obj
 0001:000335c0       ??_Gistream_withassign@@UAEPAXI@Z 004345c0 f i libcid:istream.obj
 0001:00033600       ??_Distream_withassign@@QAEXXZ 00434600 f i libcid:istream.obj
 0001:00033630       ??0istream_withassign@@QAE@PAVstreambuf@@@Z 00434630 f   libcid:istream.obj
 0001:000336c0       ??1istream_withassign@@UAE@XZ 004346c0 f   libcid:istream.obj
 0001:000336f0       ?opfx@ostream@@QAEHXZ      004346f0 f   libcid:ostream.obj
 0001:000337a0       ?osfx@ostream@@QAEXXZ      004347a0 f   libcid:ostream.obj
 0001:000338c0       ??6ostream@@QAEAAV0@PBD@Z  004348c0 f   libcid:ostream.obj
 0001:00033900       ?flush@ostream@@QAEAAV1@XZ 00434900 f   libcid:ostream.obj
 0001:000339b0       ??0ostream@@IAE@XZ         004349b0 f   libcid:ostream.obj
 0001:00033a10       ??_Eostream@@UAEPAXI@Z     00434a10 f i libcid:ostream.obj
 0001:00033a10       ??_Gostream@@UAEPAXI@Z     00434a10 f i libcid:ostream.obj
 0001:00033a50       ??_Dostream@@QAEXXZ        00434a50 f i libcid:ostream.obj
 0001:00033a80       ??0ostream@@QAE@PAVstreambuf@@@Z 00434a80 f   libcid:ostream.obj
 0001:00033b20       ??0ostream@@IAE@ABV0@@Z    00434b20 f   libcid:ostream.obj
 0001:00033bd0       ??1ostream@@UAE@XZ         00434bd0 f   libcid:ostream.obj
 0001:00033bf0       ??4ostream@@IAEAAV0@PAVstreambuf@@@Z 00434bf0 f   libcid:ostream.obj
 0001:00033d00       ??0ostream_withassign@@QAE@XZ 00434d00 f   libcid:ostream.obj
 0001:00033d90       ??_Gostream_withassign@@UAEPAXI@Z 00434d90 f i libcid:ostream.obj
 0001:00033d90       ??_Eostream_withassign@@UAEPAXI@Z 00434d90 f i libcid:ostream.obj
 0001:00033dd0       ??_Dostream_withassign@@QAEXXZ 00434dd0 f i libcid:ostream.obj
 0001:00033e00       ??0ostream_withassign@@QAE@PAVstreambuf@@@Z 00434e00 f   libcid:ostream.obj
 0001:00033e90       ??1ostream_withassign@@UAE@XZ 00434e90 f   libcid:ostream.obj
 0001:00033ec0       ?writepad@ostream@@AAEAAV1@PBD0@Z 00434ec0 f   libcid:ostream.obj
 0001:00034120       ?sputc@streambuf@@QAEHH@Z  00435120 f i libcid:ostream.obj
 0001:00034180       ?sputn@streambuf@@QAEHPBDH@Z 00435180 f i libcid:ostream.obj
 0001:000341a0       ??6ostream@@QAEAAV0@N@Z    004351a0 f   libcid:ostrdbl.obj
 0001:000343a0       ??0ifstream@@QAE@XZ        004353a0 f   libcid:ifstream.obj
 0001:00034490       ??3@YAXPAXHPBDH@Z          00435490 f i libcid:ifstream.obj
 0001:000344b0       ??_Eifstream@@UAEPAXI@Z    004354b0 f i libcid:ifstream.obj
 0001:000344b0       ??_Gifstream@@UAEPAXI@Z    004354b0 f i libcid:ifstream.obj
 0001:000344f0       ??0ifstream@@QAE@PBDHH@Z   004354f0 f   libcid:ifstream.obj
 0001:00034620       ?rdbuf@ifstream@@QBEPAVfilebuf@@XZ 00435620 f i libcid:ifstream.obj
 0001:00034640       ??0ifstream@@QAE@H@Z       00435640 f   libcid:ifstream.obj
 0001:00034730       ??0ifstream@@QAE@HPADH@Z   00435730 f   libcid:ifstream.obj
 0001:00034820       ??1ifstream@@UAE@XZ        00435820 f   libcid:ifstream.obj
 0001:00034850       ?setbuf@ifstream@@QAEPAVstreambuf@@PADH@Z 00435850 f   libcid:ifstream.obj
 0001:000348c0       ?is_open@ifstream@@QBEHXZ  004358c0 f i libcid:ifstream.obj
 0001:000348e0       ?is_open@filebuf@@QBEHXZ   004358e0 f i libcid:ifstream.obj
 0001:00034900       ?attach@ifstream@@QAEXH@Z  00435900 f   libcid:ifstream.obj
 0001:00034950       ?open@ifstream@@QAEXPBDHH@Z 00435950 f   libcid:ifstream.obj
 0001:000349b0       ?close@ifstream@@QAEXXZ    004359b0 f   libcid:ifstream.obj
 0001:00034a10       ??0ofstream@@QAE@XZ        00435a10 f   libcid:ofstream.obj
 0001:00034b00       ??_Eofstream@@UAEPAXI@Z    00435b00 f i libcid:ofstream.obj
 0001:00034b00       ??_Gofstream@@UAEPAXI@Z    00435b00 f i libcid:ofstream.obj
 0001:00034b40       ??_Dofstream@@QAEXXZ       00435b40 f i libcid:ofstream.obj
 0001:00034b70       ??0ofstream@@QAE@PBDHH@Z   00435b70 f   libcid:ofstream.obj
 0001:00034ca0       ?rdbuf@ofstream@@QBEPAVfilebuf@@XZ 00435ca0 f i libcid:ofstream.obj
 0001:00034cc0       ??0ofstream@@QAE@H@Z       00435cc0 f   libcid:ofstream.obj
 0001:00034db0       ??0ofstream@@QAE@HPADH@Z   00435db0 f   libcid:ofstream.obj
 0001:00034ea0       ??1ofstream@@UAE@XZ        00435ea0 f   libcid:ofstream.obj
 0001:00034ed0       ?setbuf@ofstream@@QAEPAVstreambuf@@PADH@Z 00435ed0 f   libcid:ofstream.obj
 0001:00034f40       ?is_open@ofstream@@QBEHXZ  00435f40 f i libcid:ofstream.obj
 0001:00034f60       ?attach@ofstream@@QAEXH@Z  00435f60 f   libcid:ofstream.obj
 0001:00034fb0       ?open@ofstream@@QAEXPBDHH@Z 00435fb0 f   libcid:ofstream.obj
 0001:00035010       ?close@ofstream@@QAEXXZ    00436010 f   libcid:ofstream.obj
 0001:00035070       ??0filebuf@@QAE@XZ         00436070 f   libcid:filebuf.obj
 0001:000350b0       ??_Efilebuf@@UAEPAXI@Z     004360b0 f i libcid:filebuf.obj
 0001:000350b0       ??_Gfilebuf@@UAEPAXI@Z     004360b0 f i libcid:filebuf.obj
 0001:000350e0       ??0filebuf@@QAE@H@Z        004360e0 f   libcid:filebuf.obj
 0001:00035120       ??0filebuf@@QAE@HPADH@Z    00436120 f   libcid:filebuf.obj
 0001:000351a0       ??1filebuf@@UAE@XZ         004361a0 f   libcid:filebuf.obj
 0001:00035210       ?lock@streambuf@@QAEXXZ    00436210 f i libcid:filebuf.obj
 0001:00035220       ?close@filebuf@@QAEPAV1@XZ 00436220 f   libcid:filebuf.obj
 0001:00035290       ?unlock@streambuf@@QAEXXZ  00436290 f i libcid:filebuf.obj
 0001:000352a0       ?overflow@filebuf@@UAEHH@Z 004362a0 f   libcid:filebuf.obj
 0001:00035360       ?base@streambuf@@IBEPADXZ  00436360 f i libcid:filebuf.obj
 0001:00035380       ?ebuf@streambuf@@IBEPADXZ  00436380 f i libcid:filebuf.obj
 0001:000353a0       ?pptr@streambuf@@IBEPADXZ  004363a0 f i libcid:filebuf.obj
 0001:000353c0       ?epptr@streambuf@@IBEPADXZ 004363c0 f i libcid:filebuf.obj
 0001:000353e0       ?setp@streambuf@@IAEXPAD0@Z 004363e0 f i libcid:filebuf.obj
 0001:00035410       ?unbuffered@streambuf@@IBEHXZ 00436410 f i libcid:filebuf.obj
 0001:00035430       ?underflow@filebuf@@UAEHXZ 00436430 f   libcid:filebuf.obj
 0001:00035520       ?blen@streambuf@@IBEHXZ    00436520 f i libcid:filebuf.obj
 0001:00035560       ?setg@streambuf@@IAEXPAD00@Z 00436560 f i libcid:filebuf.obj
 0001:000355a0       ?seekoff@filebuf@@UAEJJW4seek_dir@ios@@H@Z 004365a0 f   libcid:filebuf.obj
 0001:00035630       ?sync@filebuf@@UAEHXZ      00436630 f   libcid:filebuf.obj
 0001:000357c0       ?out_waiting@streambuf@@QBEHXZ 004367c0 f i libcid:filebuf.obj
 0001:00035800       ?pbase@streambuf@@IBEPADXZ 00436800 f i libcid:filebuf.obj
 0001:00035820       ?egptr@streambuf@@IBEPADXZ 00436820 f i libcid:filebuf.obj
 0001:00035840       ?pbump@streambuf@@IAEXH@Z  00436840 f i libcid:filebuf.obj
 0001:00035870       ?setbuf@filebuf@@UAEPAVstreambuf@@PADH@Z 00436870 f   libcid:filebuf.obj
 0001:000358e0       ?unbuffered@streambuf@@IAEXH@Z 004368e0 f i libcid:filebuf.obj
 0001:00035900       ??5istream@@QAEAAV0@AAN@Z  00436900 f   libcid:istrdbl.obj
 0001:00035960       ??6ostream@@QAEAAV0@H@Z    00436960 f   libcid:ostrint.obj
 0001:00035a90       ??0ios@@IAE@XZ             00436a90 f   libcid:_ios.obj
 0001:00035b10       ??_Eios@@UAEPAXI@Z         00436b10 f i libcid:_ios.obj
 0001:00035b10       ??_Gios@@UAEPAXI@Z         00436b10 f i libcid:_ios.obj
 0001:00035b40       ??0ios@@QAE@PAVstreambuf@@@Z 00436b40 f   libcid:_ios.obj
 0001:00035bd0       ??0ios@@IAE@ABV0@@Z        00436bd0 f   libcid:_ios.obj
 0001:00035c10       ??1ios@@UAE@XZ             00436c10 f   libcid:_ios.obj
 0001:00035c80       ?init@ios@@IAEXPAVstreambuf@@@Z 00436c80 f   libcid:_ios.obj
 0001:00035d10       ??4ios@@IAEAAV0@ABV0@@Z    00436d10 f   libcid:_ios.obj
 0001:00035da0       ?flags@ios@@QBEJXZ         00436da0 f i libcid:_ios.obj
 0001:00035dc0       ?width@ios@@QBEHXZ         00436dc0 f i libcid:_ios.obj
 0001:00035de0       ?tie@ios@@QBEPAVostream@@XZ 00436de0 f i libcid:_ios.obj
 0001:00035e00       ?fill@ios@@QBEDXZ          00436e00 f i libcid:_ios.obj
 0001:00035e20       ?precision@ios@@QBEHXZ     00436e20 f i libcid:_ios.obj
 0001:00035e40       ?rdstate@ios@@QBEHXZ       00436e40 f i libcid:_ios.obj
 0001:00035e60       ?xalloc@ios@@SAHXZ         00436e60 f   libcid:_ios.obj
 0001:00035f20       ?bitalloc@ios@@SAJXZ       00436f20 f   libcid:_ios.obj
 0001:00035f50       ?lockc@ios@@KAXXZ          00436f50 f i libcid:_ios.obj
 0001:00035f60       ?unlockc@ios@@KAXXZ        00436f60 f i libcid:_ios.obj
 0001:00035f70       ?getint@istream@@AAEHPAD@Z 00436f70 f   libcid:istrgint.obj
 0001:00036220       ?snextc@streambuf@@QAEHXZ  00437220 f   libcid:streamb1.obj
 0001:000362d0       ?sbumpc@streambuf@@QAEHXZ  004372d0 f   libcid:streamb1.obj
 0001:00036360       ?stossc@streambuf@@QAEXXZ  00437360 f   libcid:streamb1.obj
 0001:000363e0       ?sgetc@streambuf@@QAEHXZ   004373e0 f   libcid:streamb1.obj
 0001:00036430       ?attach@filebuf@@QAEPAV1@H@Z 00437430 f   libcid:filebuf1.obj
 0001:000364e0       ?open@filebuf@@QAEPAV1@PBDHH@Z 004374e0 f   libcid:filebuf1.obj
 0001:00036740       ?setmode@filebuf@@QAEHH@Z  00437740 f   libcid:filebuf1.obj
 0001:000367c0       ??0streambuf@@IAE@XZ       004377c0 f   libcid:streamb.obj
 0001:00036850       ??_Estreambuf@@UAEPAXI@Z   00437850 f i libcid:streamb.obj
 0001:00036850       ??_Gstreambuf@@UAEPAXI@Z   00437850 f i libcid:streamb.obj
 0001:00036880       ??0streambuf@@IAE@PADH@Z   00437880 f   libcid:streamb.obj
 0001:00036940       ??1streambuf@@UAE@XZ       00437940 f   libcid:streamb.obj
 0001:00036990       ?setbuf@streambuf@@UAEPAV1@PADH@Z 00437990 f   libcid:streamb.obj
 0001:000369f0       ?xsputn@streambuf@@UAEHPBDH@Z 004379f0 f   libcid:streamb.obj
 0001:00036a80       ?xsgetn@streambuf@@UAEHPADH@Z 00437a80 f   libcid:streamb.obj
 0001:00036bc0       ?sync@streambuf@@UAEHXZ    00437bc0 f   libcid:streamb.obj
 0001:00036bf0       ?allocate@streambuf@@IAEHXZ 00437bf0 f   libcid:streamb.obj
 0001:00036c30       ?doallocate@streambuf@@MAEHXZ 00437c30 f   libcid:streamb.obj
 0001:00036c90       ?setb@streambuf@@IAEXPAD0H@Z 00437c90 f   libcid:streamb.obj
 0001:00036cf0       ?seekoff@streambuf@@UAEJJW4seek_dir@ios@@H@Z 00437cf0 f   libcid:streamb.obj
 0001:00036d00       ?seekpos@streambuf@@UAEJJH@Z 00437d00 f   libcid:streamb.obj
 0001:00036d30       ?pbackfail@streambuf@@UAEHH@Z 00437d30 f   libcid:streamb.obj
 0001:00036de0       ?eback@streambuf@@IBEPADXZ 00437de0 f i libcid:streamb.obj
 0001:00036e00       ?getdouble@istream@@AAEHPADH@Z 00437e00 f   libcid:istrgdbl.obj
 0001:00037010       ??3@YAXPAX@Z               00438010 f   LIBCD:dbgdel.obj
 0001:000370a0       ??2@YAPAXI@Z               004380a0 f   LIBCD:new.obj
 0001:000370c0       ?_JumpToContinuation@@YGXPAXPAUEHRegistrationNode@@@Z 004380c0 f   LIBCD:trnsctrl.obj
 0001:00037100       ?_CallMemberFunction0@@YGXPAX0@Z 00438100 f   LIBCD:trnsctrl.obj
 0001:00037110       ?_CallMemberFunction1@@YGXPAX00@Z 00438110 f   LIBCD:trnsctrl.obj
 0001:00037120       ?_CallMemberFunction2@@YGXPAX00H@Z 00438120 f   LIBCD:trnsctrl.obj
 0001:00037130       ?_UnwindNestedFrames@@YGXPAUEHRegistrationNode@@PAUEHExceptionRecord@@@Z 00438130 f   LIBCD:trnsctrl.obj
 0001:00037190       ___CxxFrameHandler         00438190 f   LIBCD:trnsctrl.obj
 0001:000371d0       ___CxxLongjmpUnwind@4      004381d0 f   LIBCD:trnsctrl.obj
 0001:00037200       ?_CallCatchBlock2@@YAPAXPAUEHRegistrationNode@@PBU_s_FuncInfo@@PAXHK@Z 00438200 f   LIBCD:trnsctrl.obj
 0001:000372b0       ?_CallSETranslator@@YAHPAUEHExceptionRecord@@PAUEHRegistrationNode@@PAX2PBU_s_FuncInfo@@H1@Z 004382b0 f   LIBCD:trnsctrl.obj
 0001:00037410       ?_GetRangeOfTrysToCheck@@YAPBU_s_TryBlockMapEntry@@PBU_s_FuncInfo@@HHPAI1@Z 00438410 f   LIBCD:trnsctrl.obj
 0001:000374a0       __fpmath                   004384a0 f   LIBCD:fpinit.obj
 0001:000374d0       __fpclear                  004384d0 f   LIBCD:fpinit.obj
 0001:000374e0       __cfltcvt_init             004384e0 f   LIBCD:fpinit.obj
 0001:00037530       ___setfflag                00438530 f   LIBCD:fpinit.obj
 0001:00037550       __chkesp                   00438550 f   LIBCD:chkesp.obj
 0001:00037588       __global_unwind2           00438588 f   LIBCD:exsup.obj
 0001:000375ca       __local_unwind2            004385ca f   LIBCD:exsup.obj
 0001:00037622       __NLG_Return2              00438622 f   LIBCD:exsup.obj
 0001:00037632       __abnormal_termination     00438632 f   LIBCD:exsup.obj
 0001:00037655       __NLG_Notify1              00438655 f   LIBCD:exsup.obj
 0001:0003765e       __NLG_Notify               0043865e f   LIBCD:exsup.obj
 0001:00037671       __NLG_Dispatch             00438671 f   LIBCD:exsup.obj
 0001:00037680       _atol                      00438680 f   LIBCD:atox.obj
 0001:00037780       _atoi                      00438780 f   LIBCD:atox.obj
 0001:000377a0       __atoi64                   004387a0 f   LIBCD:atox.obj
 0001:000378d0       __cinit                    004388d0 f   LIBCD:crt0dat.obj
 0001:00037910       _exit                      00438910 f   LIBCD:crt0dat.obj
 0001:00037930       __exit                     00438930 f   LIBCD:crt0dat.obj
 0001:00037950       __cexit                    00438950 f   LIBCD:crt0dat.obj
 0001:00037970       __c_exit                   00438970 f   LIBCD:crt0dat.obj
 0001:00037aa0       __filbuf                   00438aa0 f   LIBCD:_filbuf.obj
 0001:00037c80       ___initstdio               00438c80 f   LIBCD:_file.obj
 0001:00037db0       ___endstdio                00438db0 f   LIBCD:_file.obj
 0001:00037dd0       _printf                    00438dd0 f   LIBCD:printf.obj
 0001:00037e50       _strcmp                    00438e50 f   LIBCD:strcmp.obj
 0001:00037ee0       __CIsqrt                   00438ee0 f   LIBCD:sqrt.obj
 0001:00037ef4       _sqrt                      00438ef4 f   LIBCD:sqrt.obj
 0001:00037fa0       __CIpow                    00438fa0 f   LIBCD:pow.obj
 0001:00037fb9       _pow                       00438fb9 f   LIBCD:pow.obj
 0001:000381c0       _fabs                      004391c0 f   LIBCD:fabs.obj
 0001:000382c0       _strcpy                    004392c0 f   LIBCD:strcat.obj
 0001:000382d0       _strcat                    004392d0 f   LIBCD:strcat.obj
 0001:000383b0       _atof                      004393b0 f   LIBCD:atof.obj
 0001:00038430       _sprintf                   00439430 f   LIBCD:sprintf.obj
 0001:00038530       __CIsin                    00439530 f   LIBCD:sin.obj
 0001:00038544       _sin                       00439544 f   LIBCD:sin.obj
 0001:000385e0       __CIcos                    004395e0 f   LIBCD:cos.obj
 0001:000385f4       _cos                       004395f4 f   LIBCD:cos.obj
 0001:00038690       __ftol                     00439690 f   LIBCD:ftol.obj
 0001:000386c0       _abs                       004396c0 f   LIBCD:abs.obj
 0001:000386f0       _system                    004396f0 f   LIBCD:system.obj
 0001:00038800       __CIatan                   00439800 f   LIBCD:atan.obj
 0001:00038814       _atan                      00439814 f   LIBCD:atan.obj
 0001:000388a0       __CIacos                   004398a0 f   LIBCD:acos.obj
 0001:000388b4       _acos                      004398b4 f   LIBCD:acos.obj
 0001:00038970       _exp                       00439970 f   LIBCD:87ctran.obj
 0001:0003897a       __CIexp                    0043997a f   LIBCD:87ctran.obj
 0001:00038990       _srand                     00439990 f   LIBCD:rand.obj
 0001:000389a0       _rand                      004399a0 f   LIBCD:rand.obj
 0001:000389d0       _mainCRTStartup            004399d0 f   LIBCD:crt0.obj
 0001:00038b00       __amsg_exit                00439b00 f   LIBCD:crt0.obj
 0001:00038b60       __purecall                 00439b60 f   LIBCD:purevirt.obj
 0001:00038b70       __alloca_probe             00439b70 f   LIBCD:chkstk.obj
 0001:00038b70       __chkstk                   00439b70 f   LIBCD:chkstk.obj
 0001:00038ba0       _floor                     00439ba0 f   LIBCD:floor.obj
 0001:00038ce0       _ldexp                     00439ce0 f   LIBCD:ldexp.obj
 0001:00038fa0       _frexp                     00439fa0 f   LIBCD:frexp.obj
 0001:000390a0       _memmove                   0043a0a0 f   LIBCD:memmove.obj
 0001:000393e0       _malloc                    0043a3e0 f   LIBCD:dbgheap.obj
 0001:00039400       __malloc_dbg               0043a400 f   LIBCD:dbgheap.obj
 0001:00039430       __nh_malloc                0043a430 f   LIBCD:dbgheap.obj
 0001:00039450       __nh_malloc_dbg            0043a450 f   LIBCD:dbgheap.obj
 0001:000394a0       __heap_alloc               0043a4a0 f   LIBCD:dbgheap.obj
 0001:000394c0       __heap_alloc_dbg           0043a4c0 f   LIBCD:dbgheap.obj
 0001:000397e0       _calloc                    0043a7e0 f   LIBCD:dbgheap.obj
 0001:00039800       __calloc_dbg               0043a800 f   LIBCD:dbgheap.obj
 0001:00039860       _realloc                   0043a860 f   LIBCD:dbgheap.obj
 0001:00039880       __realloc_dbg              0043a880 f   LIBCD:dbgheap.obj
 0001:00039dd0       __expand                   0043add0 f   LIBCD:dbgheap.obj
 0001:00039df0       __expand_dbg               0043adf0 f   LIBCD:dbgheap.obj
 0001:00039e20       _free                      0043ae20 f   LIBCD:dbgheap.obj
 0001:00039e40       __free_dbg                 0043ae40 f   LIBCD:dbgheap.obj
 0001:0003a230       __msize                    0043b230 f   LIBCD:dbgheap.obj
 0001:0003a250       __msize_dbg                0043b250 f   LIBCD:dbgheap.obj
 0001:0003a3a0       __CrtSetBreakAlloc         0043b3a0 f   LIBCD:dbgheap.obj
 0001:0003a3c0       __CrtSetDbgBlockType       0043b3c0 f   LIBCD:dbgheap.obj
 0001:0003a450       __CrtSetAllocHook          0043b450 f   LIBCD:dbgheap.obj
 0001:0003a500       __CrtCheckMemory           0043b500 f   LIBCD:dbgheap.obj
 0001:0003a860       __CrtSetDbgFlag            0043b860 f   LIBCD:dbgheap.obj
 0001:0003a890       __CrtDoForAllClientObjects 0043b890 f   LIBCD:dbgheap.obj
 0001:0003a8f0       __CrtIsValidPointer        0043b8f0 f   LIBCD:dbgheap.obj
 0001:0003a940       __CrtIsValidHeapPointer    0043b940 f   LIBCD:dbgheap.obj
 0001:0003a9d0       __CrtIsMemoryBlock         0043b9d0 f   LIBCD:dbgheap.obj
 0001:0003aaa0       __CrtSetDumpClient         0043baa0 f   LIBCD:dbgheap.obj
 0001:0003aac0       __CrtMemCheckpoint         0043bac0 f   LIBCD:dbgheap.obj
 0001:0003ac20       __CrtMemDifference         0043bc20 f   LIBCD:dbgheap.obj
 0001:0003ad50       __CrtMemDumpAllObjectsSince 0043bd50 f   LIBCD:dbgheap.obj
 0001:0003b120       __CrtDumpMemoryLeaks       0043c120 f   LIBCD:dbgheap.obj
 0001:0003b1a0       __CrtMemDumpStatistics     0043c1a0 f   LIBCD:dbgheap.obj
 0001:0003b270       __vsnprintf                0043c270 f   LIBCD:vsnprint.obj
 0001:0003b370       __snprintf                 0043c370 f   LIBCD:snprintf.obj
 0001:0003b470       _abort                     0043c470 f   LIBCD:abort.obj
 0001:0003b490       _vfprintf                  0043c490 f   LIBCD:vfprintf.obj
 0001:0003b540       _fprintf                   0043c540 f   LIBCD:fprintf.obj
 0001:0003b5f0       _fflush                    0043c5f0 f   LIBCD:fflush.obj
 0001:0003b650       __flush                    0043c650 f   LIBCD:fflush.obj
 0001:0003b710       __flushall                 0043c710 f   LIBCD:fflush.obj
 0001:0003b800       __copysign                 0043c800 f   LIBCD:ieeemisc.obj
 0001:0003b830       __chgsign                  0043c830 f   LIBCD:ieeemisc.obj
 0001:0003b860       __scalb                    0043c860 f   LIBCD:ieeemisc.obj
 0001:0003b880       __logb                     0043c880 f   LIBCD:ieeemisc.obj
 0001:0003b9b0       __nextafter                0043c9b0 f   LIBCD:ieeemisc.obj
 0001:0003bcf0       __finite                   0043ccf0 f   LIBCD:ieeemisc.obj
 0001:0003bd20       __isnan                    0043cd20 f   LIBCD:ieeemisc.obj
 0001:0003bd70       __fpclass                  0043cd70 f   LIBCD:ieeemisc.obj
 0001:0003be50       _fclose                    0043ce50 f   LIBCD:fclose.obj
 0001:0003bf30       _fread                     0043cf30 f   LIBCD:fread.obj
 0001:0003c100       _ungetc                    0043d100 f   LIBCD:ungetc.obj
 0001:0003c240       _fgetc                     0043d240 f   LIBCD:fgetc.obj
 0001:0003c2d0       _getc                      0043d2d0 f   LIBCD:fgetc.obj
 0001:0003c2f0       __fsopen                   0043d2f0 f   LIBCD:fopen.obj
 0001:0003c3e0       _fopen                     0043d3e0 f   LIBCD:fopen.obj
 0001:0003c400       _vsprintf                  0043d400 f   LIBCD:vsprintf.obj
 0001:0003c500       _vprintf                   0043d500 f   LIBCD:vprintf.obj
 0001:0003c580       _freopen                   0043d580 f   LIBCD:freopen.obj
 0001:0003c6b0       _strtol                    0043d6b0 f   LIBCD:strtol.obj
 0001:0003ca00       _strtoul                   0043da00 f   LIBCD:strtol.obj
 0001:0003ca20       ??1type_info@@UAE@XZ       0043da20 f   LIBCD:typinfo.obj
 0001:0003ca50       ??_Etype_info@@UAEPAXI@Z   0043da50 f i LIBCD:typinfo.obj
 0001:0003ca50       ??_Gtype_info@@UAEPAXI@Z   0043da50 f i LIBCD:typinfo.obj
 0001:0003ca80       ??8type_info@@QBEHABV0@@Z  0043da80 f   LIBCD:typinfo.obj
 0001:0003cab0       ??9type_info@@QBEHABV0@@Z  0043dab0 f   LIBCD:typinfo.obj
 0001:0003cae0       ?before@type_info@@QBEHABV1@@Z 0043dae0 f   LIBCD:typinfo.obj
 0001:0003cb10       ?raw_name@type_info@@QBEPBDXZ 0043db10 f   LIBCD:typinfo.obj
 0001:0003cb30       ??0type_info@@AAE@ABV0@@Z  0043db30 f   LIBCD:typinfo.obj
 0001:0003cb50       ??4type_info@@AAEAAV0@ABV0@@Z 0043db50 f   LIBCD:typinfo.obj
 0001:0003cb60       _isalpha                   0043db60 f   LIBCD:_ctype.obj
 0001:0003cbb0       _isupper                   0043dbb0 f   LIBCD:_ctype.obj
 0001:0003cbf0       _islower                   0043dbf0 f   LIBCD:_ctype.obj
 0001:0003cc30       _isdigit                   0043dc30 f   LIBCD:_ctype.obj
 0001:0003cc70       _isxdigit                  0043dc70 f   LIBCD:_ctype.obj
 0001:0003ccc0       _isspace                   0043dcc0 f   LIBCD:_ctype.obj
 0001:0003cd00       _ispunct                   0043dd00 f   LIBCD:_ctype.obj
 0001:0003cd40       _isalnum                   0043dd40 f   LIBCD:_ctype.obj
 0001:0003cd90       _isprint                   0043dd90 f   LIBCD:_ctype.obj
 0001:0003cde0       _isgraph                   0043dde0 f   LIBCD:_ctype.obj
 0001:0003ce30       _iscntrl                   0043de30 f   LIBCD:_ctype.obj
 0001:0003ce70       ___isascii                 0043de70 f   LIBCD:_ctype.obj
 0001:0003ce80       ___toascii                 0043de80 f   LIBCD:_ctype.obj
 0001:0003ce90       ___iscsymf                 0043de90 f   LIBCD:_ctype.obj
 0001:0003cef0       ___iscsym                  0043def0 f   LIBCD:_ctype.obj
 0001:0003cf50       _strlen                    0043df50 f   LIBCD:strlen.obj
 0001:0003cfd0       __toupper                  0043dfd0 f   LIBCD:toupper.obj
 0001:0003cfe0       _toupper                   0043dfe0 f   LIBCD:toupper.obj
 0001:0003d110       ??2@YAPAXIHPBDH@Z          0043e110 f   LIBCD:dbgnew.obj
 0001:0003d130       __close                    0043e130 f   LIBCD:close.obj
 0001:0003d220       __write                    0043e220 f   LIBCD:write.obj
 0001:0003d4d0       __read                     0043e4d0 f   LIBCD:read.obj
 0001:0003d930       __lseek                    0043e930 f   LIBCD:lseek.obj
 0001:0003da20       __ioinit                   0043ea20 f   LIBCD:ioinit.obj
 0001:0003dd30       __ioterm                   0043ed30 f   LIBCD:ioinit.obj
 0001:0003dd90       _strtod                    0043ed90 f   LIBCD:strtod.obj
 0001:0003ded0       __open                     0043eed0 f   LIBCD:open.obj
 0001:0003df10       __sopen                    0043ef10 f   LIBCD:open.obj
 0001:0003e400       __setmode                  0043f400 f   LIBCD:setmode.obj
 0001:0003e500       _memcpy                    0043f500 f   LIBCD:memcpy.obj
 0001:0003e840       __CrtDbgBreak              0043f840 f   LIBCD:dbgrpt.obj
 0001:0003e850       __CrtSetReportMode         0043f850 f   LIBCD:dbgrpt.obj
 0001:0003e8b0       __CrtSetReportFile         0043f8b0 f   LIBCD:dbgrpt.obj
 0001:0003e930       __CrtSetReportHook         0043f930 f   LIBCD:dbgrpt.obj
 0001:0003e950       __CrtDbgReport             0043f950 f   LIBCD:dbgrpt.obj
 0001:0003eff0       ___InternalCxxFrameHandler 0043fff0 f   LIBCD:frame.obj
 0001:0003f560       ___FrameUnwindToState      00440560 f   LIBCD:frame.obj
 0001:0003fb70       ?_DestructExceptionObject@@YAXPAUEHExceptionRecord@@E@Z 00440b70 f   LIBCD:frame.obj
 0001:0003fc50       __CallSettingFrame@12      00440c50 f   LIBCD:lowhelpr.obj
 0001:0003fc77       __NLG_Return               00440c77 f   LIBCD:lowhelpr.obj
 0001:0003fca0       ?terminate@@YAXXZ          00440ca0 f   LIBCD:hooks.obj
 0001:0003fd30       ?unexpected@@YAXXZ         00440d30 f   LIBCD:hooks.obj
 0001:0003fd50       ?_inconsistency@@YAXXZ     00440d50 f   LIBCD:hooks.obj
 0001:0003fde0       __setdefaultprecision      00440de0 f   LIBCD:fp8.obj
 0001:0003fe00       __ms_p5_test_fdiv          00440e00 f   LIBCD:testfdiv.obj
 0001:0003fe60       __ms_p5_mp_test_fdiv       00440e60 f   LIBCD:testfdiv.obj
 0001:0003feb0       __forcdecpt                00440eb0 f   LIBCD:cvt.obj
 0001:0003ff60       __cropzeros                00440f60 f   LIBCD:cvt.obj
 0001:00040040       __positive                 00441040 f   LIBCD:cvt.obj
 0001:00040070       __fassign                  00441070 f   LIBCD:cvt.obj
 0001:000400c0       __cftoe                    004410c0 f   LIBCD:cvt.obj
 0001:00040280       __cftof                    00441280 f   LIBCD:cvt.obj
 0001:00040410       __cftog                    00441410 f   LIBCD:cvt.obj
 0001:00040580       __cfltcvt                  00441580 f   LIBCD:cvt.obj
 0001:00040610       __isctype                  00441610 f   LIBCD:isctype.obj
 0001:000406d0       __allmul                   004416d0 f   LIBCD:llmul.obj
 0001:00040710       __getbuf                   00441710 f   LIBCD:_getbuf.obj
 0001:000407e0       __fcloseall                004417e0 f   LIBCD:closeall.obj
 0001:00040890       __stbuf                    00441890 f   LIBCD:_sftbuf.obj
 0001:000409f0       __ftbuf                    004419f0 f   LIBCD:_sftbuf.obj
 0001:00040ab0       __output                   00441ab0 f   LIBCD:output.obj
 0001:00041950       __trandisp1                00442950 f   LIBCD:87disp.obj
 0001:000419b7       __trandisp2                004429b7 f   LIBCD:87disp.obj
 0001:00041a43       __rttospopde               00442a43 f   LIBCD:87disp.obj
 0001:00041a48       __rttospop                 00442a48 f   LIBCD:87disp.obj
 0001:00041a4a       __rtnospop                 00442a4a f   LIBCD:87disp.obj
 0001:00041a4c       __rttosnpop                00442a4c f   LIBCD:87disp.obj
 0001:00041a4d       __rtnospopde               00442a4d f   LIBCD:87disp.obj
 0001:00041a54       __rtzeropop                00442a54 f   LIBCD:87disp.obj
 0001:00041a56       __rtzeronpop               00442a56 f   LIBCD:87disp.obj
 0001:00041a5b       __rtonepop                 00442a5b f   LIBCD:87disp.obj
 0001:00041a5d       __rtonenpop                00442a5d f   LIBCD:87disp.obj
 0001:00041a62       __tosnan1                  00442a62 f   LIBCD:87disp.obj
 0001:00041a8d       __nosnan2                  00442a8d f   LIBCD:87disp.obj
 0001:00041a8f       __tosnan2                  00442a8f f   LIBCD:87disp.obj
 0001:00041ab7       __nan2                     00442ab7 f   LIBCD:87disp.obj
 0001:00041af6       __rtindfpop                00442af6 f   LIBCD:87disp.obj
 0001:00041af8       __rtindfnpop               00442af8 f   LIBCD:87disp.obj
 0001:00041b09       __rttosnpopde              00442b09 f   LIBCD:87disp.obj
 0001:00041b13       __rtchsifneg               00442b13 f   LIBCD:87disp.obj
 0001:00041b20       __startTwoArgErrorHandling 00442b20 f   LIBCD:genexcep.obj
 0001:00041b37       __startOneArgErrorHandling 00442b37 f   LIBCD:genexcep.obj
 0001:00041b80       __twoToTOS                 00442b80 f   LIBCD:common.obj
 0001:00041b95       __load_CW                  00442b95 f   LIBCD:common.obj
 0001:00041bac       __convertTOStoQNaN         00442bac f   LIBCD:common.obj
 0001:00041bc5       __fload_withFB             00442bc5 f   LIBCD:common.obj
 0001:00041c08       __checkTOS_withFB          00442c08 f   LIBCD:common.obj
 0001:00041c1e       __fast_exit                00442c1e f   LIBCD:common.obj
 0001:00041c2b       __math_exit                00442c2b f   LIBCD:common.obj
 0001:00041c55       __check_overflow_exit      00442c55 f   LIBCD:common.obj
 0001:00041c69       __check_range_exit         00442c69 f   LIBCD:common.obj
 0001:00041d21       __fFEXP                    00442d21 f   LIBCD:87tran.obj
 0001:00041d88       __rtinfpopse               00442d88 f   LIBCD:87tran.obj
 0001:00041d8a       __rtinfnpopse              00442d8a f   LIBCD:87tran.obj
 0001:00041d9a       __fFLN                     00442d9a f   LIBCD:87tran.obj
 0001:00041e4f       __rtinfpop                 00442e4f f   LIBCD:87tran.obj
 0001:00041e51       __rtinfnpop                00442e51 f   LIBCD:87tran.obj
 0001:00041e6e       __ffexpm1                  00442e6e f   LIBCD:87tran.obj
 0001:00041f20       __powhlp                   00442f20 f   LIBCD:powhlp.obj
 0001:00042190       __d_inttype                00443190 f   LIBCD:powhlp.obj
 0001:00042210       __handle_qnan1             00443210 f   LIBCD:fpexcept.obj
 0001:00042270       __handle_qnan2             00443270 f   LIBCD:fpexcept.obj
 0001:000422e0       __except1                  004432e0 f   LIBCD:fpexcept.obj
 0001:000423a0       __except2                  004433a0 f   LIBCD:fpexcept.obj
 0001:00042470       __raise_exc                00443470 f   LIBCD:fpexcept.obj
 0001:00042940       __handle_exc               00443940 f   LIBCD:fpexcept.obj
 0001:00042cc0       __umatherr                 00443cc0 f   LIBCD:fpexcept.obj
 0001:00042d60       __set_errno                00443d60 f   LIBCD:fpexcept.obj
 0001:00042de0       __errcode                  00443de0 f   LIBCD:fpexcept.obj
 0001:00042e60       __set_exp                  00443e60 f   LIBCD:util.obj
 0001:00042ea0       __get_exp                  00443ea0 f   LIBCD:util.obj
 0001:00042ed0       __add_exp                  00443ed0 f   LIBCD:util.obj
 0001:00042f10       __set_bexp                 00443f10 f   LIBCD:util.obj
 0001:00042f50       __sptype                   00443f50 f   LIBCD:util.obj
 0001:00042fd0       __decomp                   00443fd0 f   LIBCD:util.obj
 0001:00043110       __statfp                   00444110 f   LIBCD:fpctrl.obj
 0001:00043130       __clrfp                    00444130 f   LIBCD:fpctrl.obj
 0001:00043150       __ctrlfp                   00444150 f   LIBCD:fpctrl.obj
 0001:00043190       __set_statfp               00444190 f   LIBCD:fpctrl.obj
 0001:00043210       __fltin                    00444210 f   LIBCD:cfin.obj
 0001:000432e0       __flsbuf                   004442e0 f   LIBCD:_flsbuf.obj
 0001:00043560       __spawnvpe                 00444560 f   LIBCD:spawnvpe.obj
 0001:00043840       __spawnve                  00444840 f   LIBCD:spawnve.obj
 0001:00043ab0       __access                   00444ab0 f   LIBCD:access.obj
 0001:00043b10       _getenv                    00444b10 f   LIBCD:getenv.obj
 0001:00043be0       __cintrindisp2             00444be0 f   LIBCD:87cdisp.obj
 0001:00043c1e       __cintrindisp1             00444c1e f   LIBCD:87cdisp.obj
 0001:00043c54       __ctrandisp2               00444c54 f   LIBCD:87cdisp.obj
 0001:00043dc5       __ctrandisp1               00444dc5 f   LIBCD:87cdisp.obj
 0001:00043df1       __fload                    00444df1 f   LIBCD:87cdisp.obj
 0001:00043e30       __XcptFilter               00444e30 f   LIBCD:winxfltr.obj
 0001:00044040       __setenvp                  00445040 f   LIBCD:stdenvp.obj
 0001:00044190       __setargv                  00445190 f   LIBCD:stdargv.obj
 0001:000446a0       ___crtGetEnvironmentStringsA 004456a0 f   LIBCD:a_env.obj
 0001:000448c0       __heap_init                004458c0 f   LIBCD:heapinit.obj
 0001:00044910       __heap_term                00445910 f   LIBCD:heapinit.obj
 0001:000449b4       __except_handler3          004459b4 f   LIBCD:exsup3.obj
 0001:00044a71       __seh_longjmp_unwind@4     00445a71 f   LIBCD:exsup3.obj
 0001:00044a90       __FF_MSGBANNER             00445a90 f   LIBCD:crt0msg.obj
 0001:00044ae0       __NMSG_WRITE               00445ae0 f   LIBCD:crt0msg.obj
 0001:00044ca0       __GET_RTERRMSG             00445ca0 f   LIBCD:crt0msg.obj
 0001:00044cf0       __frnd                     00445cf0 f   LIBCD:frnd.obj
 0001:00044d10       ?_set_new_handler@@YAP6AHI@ZP6AHI@Z@Z 00445d10 f   LIBCD:handler.obj
 0001:00044d30       ?_query_new_handler@@YAP6AHI@ZXZ 00445d30 f   LIBCD:handler.obj
 0001:00044d40       __callnewh                 00445d40 f   LIBCD:handler.obj
 0001:00044d70       _memset                    00445d70 f   LIBCD:memset.obj
 0001:00044dd0       __malloc_base              00445dd0 f   LIBCD:malloc.obj
 0001:00044df0       __nh_malloc_base           00445df0 f   LIBCD:malloc.obj
 0001:00044e50       __heap_alloc_base          00445e50 f   LIBCD:malloc.obj
 0001:00044eb0       __CrtDefaultAllocHook      00445eb0 f   LIBCD:dbghook.obj
 0001:00044ec0       __expand_base              00445ec0 f   LIBCD:expand.obj
 0001:00044f50       __realloc_base             00445f50 f   LIBCD:realloc.obj
 0001:00045120       __free_base                00446120 f   LIBCD:free.obj
 0001:00045170       __heapchk                  00446170 f   LIBCD:heapchk.obj
 0001:000451d0       __heapset                  004461d0 f   LIBCD:heapchk.obj
 0001:000451e0       __get_sbh_threshold        004461e0 f   LIBCD:sbheap.obj
 0001:000451f0       __set_sbh_threshold        004461f0 f   LIBCD:sbheap.obj
 0001:00045210       ___sbh_heap_init           00446210 f   LIBCD:sbheap.obj
 0001:00045270       ___sbh_find_block          00446270 f   LIBCD:sbheap.obj
 0001:000452d0       ___sbh_verify_block        004462d0 f   LIBCD:sbheap.obj
 0001:00045330       ___sbh_free_block          00446330 f   LIBCD:sbheap.obj
 0001:00045900       ___sbh_alloc_block         00446900 f   LIBCD:sbheap.obj
 0001:00045e40       ___sbh_alloc_new_region    00446e40 f   LIBCD:sbheap.obj
 0001:00045f50       ___sbh_alloc_new_group     00446f50 f   LIBCD:sbheap.obj
 0001:00046140       ___sbh_resize_block        00447140 f   LIBCD:sbheap.obj
 0001:00046730       ___sbh_heapmin             00447730 f   LIBCD:sbheap.obj
 0001:00046860       ___sbh_heap_check          00447860 f   LIBCD:sbheap.obj
 0001:00046e80       _signal                    00447e80 f   LIBCD:winsig.obj
 0001:00047090       _raise                     00448090 f   LIBCD:winsig.obj
 0001:000472b0       __commit                   004482b0 f   LIBCD:commit.obj
 0001:00047360       __freebuf                  00448360 f   LIBCD:_freebuf.obj
 0001:00047400       __openfile                 00448400 f   LIBCD:_open.obj
 0001:00047790       __getstream                00448790 f   LIBCD:stream.obj
 0001:00047880       ___crtLCMapStringA         00448880 f   LIBCD:a_map.obj
 0001:00047be0       __dosmaperr                00448be0 f   LIBCD:dosmap.obj
 0001:00047c70       __alloc_osfhnd             00448c70 f   LIBCD:osfinfo.obj
 0001:00047da0       __set_osfhnd               00448da0 f   LIBCD:osfinfo.obj
 0001:00047e50       __free_osfhnd              00448e50 f   LIBCD:osfinfo.obj
 0001:00047f20       __get_osfhandle            00448f20 f   LIBCD:osfinfo.obj
 0001:00047f80       __open_osfhandle           00448f80 f   LIBCD:osfinfo.obj
 0001:00048070       __chsize                   00449070 f   LIBCD:chsize.obj
 0001:000482e0       __itoa                     004492e0 f   LIBCD:xtoa.obj
 0001:00048400       __ltoa                     00449400 f   LIBCD:xtoa.obj
 0001:00048440       __ultoa                    00449440 f   LIBCD:xtoa.obj
 0001:00048460       __i64toa                   00449460 f   LIBCD:xtoa.obj
 0001:000485b0       __ui64toa                  004495b0 f   LIBCD:xtoa.obj
 0001:000485d0       ___crtMessageBoxA          004495d0 f   LIBCD:crtmbox.obj
 0001:00048690       _strncpy                   00449690 f   LIBCD:strncpy.obj
 0001:00048790       ?__CxxUnhandledExceptionFilter@@YGJPAU_EXCEPTION_POINTERS@@@Z 00449790 f   LIBCD:unhandld.obj
 0001:000487f0       ?__CxxSetUnhandledExceptionFilter@@YAXXZ 004497f0 f   LIBCD:unhandld.obj
 0001:00048810       ?__CxxRestoreUnhandledExceptionFilter@@YAXXZ 00449810 f   LIBCD:unhandld.obj
 0001:00048830       ?_ValidateRead@@YAHPBXI@Z  00449830 f   LIBCD:validate.obj
 0001:00048860       ?_ValidateWrite@@YAHPAXI@Z 00449860 f   LIBCD:validate.obj
 0001:00048890       ?_ValidateExecute@@YAHP6GHXZ@Z 00449890 f   LIBCD:validate.obj
 0001:000488c0       __statusfp                 004498c0 f   LIBCD:ieee87.obj
 0001:000488e0       __clearfp                  004498e0 f   LIBCD:ieee87.obj
 0001:00048900       __control87                00449900 f   LIBCD:ieee87.obj
 0001:00048950       __controlfp                00449950 f   LIBCD:ieee87.obj
 0001:00048970       __fpreset                  00449970 f   LIBCD:ieee87.obj
 0001:00048d60       __tolower                  00449d60 f   LIBCD:tolower.obj
 0001:00048d70       _tolower                   00449d70 f   LIBCD:tolower.obj
 0001:00048ea0       __ZeroTail                 00449ea0 f   LIBCD:intrncvt.obj
 0001:00048f30       __IncMan                   00449f30 f   LIBCD:intrncvt.obj
 0001:00048fe0       __RoundMan                 00449fe0 f   LIBCD:intrncvt.obj
 0001:000490c0       __CopyMan                  0044a0c0 f   LIBCD:intrncvt.obj
 0001:00049110       __FillZeroMan              0044a110 f   LIBCD:intrncvt.obj
 0001:00049140       __IsZeroMan                0044a140 f   LIBCD:intrncvt.obj
 0001:00049180       __ShrMan                   0044a180 f   LIBCD:intrncvt.obj
 0001:00049270       __ld12cvt                  0044a270 f   LIBCD:intrncvt.obj
 0001:000494c0       __ld12tod                  0044a4c0 f   LIBCD:intrncvt.obj
 0001:000494e0       __ld12tof                  0044a4e0 f   LIBCD:intrncvt.obj
 0001:00049500       __ld12told                 0044a500 f   LIBCD:intrncvt.obj
 0001:000495c0       __atodbl                   0044a5c0 f   LIBCD:intrncvt.obj
 0001:00049600       __atoldbl                  0044a600 f   LIBCD:intrncvt.obj
 0001:00049640       __atoflt                   0044a640 f   LIBCD:intrncvt.obj
 0001:00049680       __fptostr                  0044a680 f   LIBCD:_fptostr.obj
 0001:00049780       __fltout                   0044a780 f   LIBCD:cfout.obj
 0001:00049800       ___dtold                   0044a800 f   LIBCD:cfout.obj
 0001:00049970       __fptrap                   0044a970 f   LIBCD:crt0fp.obj
 0001:00049980       ___crtGetStringTypeA       0044a980 f   LIBCD:a_str.obj
 0001:00049b40       __isatty                   0044ab40 f   LIBCD:isatty.obj
 0001:00049b70       _wctomb                    0044ab70 f   LIBCD:wctomb.obj
 0001:00049c10       __aulldiv                  0044ac10 f   LIBCD:ulldiv.obj
 0001:00049c80       __aullrem                  0044ac80 f   LIBCD:ullrem.obj
 0001:00049d00       __87except                 0044ad00 f   LIBCD:87except.obj
 0001:00049e80       _fdiv_main_routine         0044ae80 f   LIBCD:adj_fdiv.obj
 0001:00049f97       __adj_fdiv_r               0044af97 f   LIBCD:adj_fdiv.obj
 0001:0004a436       __fdivp_sti_st             0044b436 f   LIBCD:adj_fdiv.obj
 0001:0004a449       __fdivrp_sti_st            0044b449 f   LIBCD:adj_fdiv.obj
 0001:0004a45c       __adj_fdiv_m32             0044b45c f   LIBCD:adj_fdiv.obj
 0001:0004a4a8       __adj_fdiv_m64             0044b4a8 f   LIBCD:adj_fdiv.obj
 0001:0004a4f4       __adj_fdiv_m16i            0044b4f4 f   LIBCD:adj_fdiv.obj
 0001:0004a528       __adj_fdiv_m32i            0044b528 f   LIBCD:adj_fdiv.obj
 0001:0004a55c       __adj_fdivr_m32            0044b55c f   LIBCD:adj_fdiv.obj
 0001:0004a5a8       __adj_fdivr_m64            0044b5a8 f   LIBCD:adj_fdiv.obj
 0001:0004a5f4       __adj_fdivr_m16i           0044b5f4 f   LIBCD:adj_fdiv.obj
 0001:0004a628       __adj_fdivr_m32i           0044b628 f   LIBCD:adj_fdiv.obj
 0001:0004a65c       __safe_fdiv                0044b65c f   LIBCD:adj_fdiv.obj
 0001:0004a671       __safe_fdivr               0044b671 f   LIBCD:adj_fdiv.obj
 0001:0004a686       __fprem_common             0044b686 f   LIBCD:adj_fdiv.obj
 0001:0004a88c       __adj_fprem                0044b88c f   LIBCD:adj_fdiv.obj
 0001:0004a93e       __fprem1_common            0044b93e f   LIBCD:adj_fdiv.obj
 0001:0004ab44       __adj_fprem1               0044bb44 f   LIBCD:adj_fdiv.obj
 0001:0004abf9       __safe_fprem               0044bbf9 f   LIBCD:adj_fdiv.obj
 0001:0004abff       __safe_fprem1              0044bbff f   LIBCD:adj_fdiv.obj
 0001:0004ac05       __adj_fpatan               0044bc05 f   LIBCD:adj_fdiv.obj
 0001:0004ac08       __adj_fptan                0044bc08 f   LIBCD:adj_fdiv.obj
 0001:0004ac10       __matherr                  0044bc10 f   LIBCD:matherr.obj
 0001:0004ac20       ___strgtold12              0044bc20 f   LIBCD:strgtold.obj
 0001:0004b750       ___STRINGTOLD              0044c750 f   LIBCD:strgtold.obj
 0001:0004b7a0       __mbsrchr                  0044c7a0 f   LIBCD:mbsrchr.obj
 0001:0004b860       __getpath                  0044c860 f   LIBCD:getpath.obj
 0001:0004b990       __mbschr                   0044c990 f   LIBCD:mbschr.obj
 0001:0004ba60       __dospawn                  0044ca60 f   LIBCD:dospawn.obj
 0001:0004bdc0       __cenvarg                  0044cdc0 f   LIBCD:cenvarg.obj
 0001:0004c180       __mbsnbicoll               0044d180 f   LIBCD:mbsnbico.obj
 0001:0004c1d0       ___wtomb_environ           0044d1d0 f   LIBCD:wtombenv.obj
 0001:0004c280       __setmbcp                  0044d280 f   LIBCD:mbctype.obj
 0001:0004c9f0       __getmbcp                  0044d9f0 f   LIBCD:mbctype.obj
 0001:0004ca10       ___initmbctable            0044da10 f   LIBCD:mbctype.obj
 0001:0004ca40       ___addl                    0044da40 f   LIBCD:mantold.obj
 0001:0004ca80       ___add_12                  0044da80 f   LIBCD:mantold.obj
 0001:0004cb30       ___shl_12                  0044db30 f   LIBCD:mantold.obj
 0001:0004cb90       ___shr_12                  0044db90 f   LIBCD:mantold.obj
 0001:0004cc00       ___mtold12                 0044dc00 f   LIBCD:mantold.obj
 0001:0004cd40       _$I10_OUTPUT               0044dd40 f   LIBCD:x10fout.obj
 0001:0004d260       ___ld12mul                 0044e260 f   LIBCD:tenpow.obj
 0001:0004d6a0       ___multtenpow12            0044e6a0 f   LIBCD:tenpow.obj
 0001:0004d770       _strrchr                   0044e770 f   LIBCD:strrchr.obj
 0001:0004d7b0       _strchr                    0044e7b0 f   LIBCD:strchr.obj
 0001:0004d7b6       ___from_strstr_to_strchr   0044e7b6 f   LIBCD:strchr.obj
 0001:0004d870       ___crtCompareStringA       0044e870 f   LIBCD:a_cmp.obj
 0001:0004dcc0       ___crtsetenv               0044ecc0 f   LIBCD:setenv.obj
 0001:0004e10e       _RtlUnwind@16              0044f10e f   kernel32:KERNEL32.dll
 0001:0004e114       _ExitProcess@4             0044f114 f   kernel32:KERNEL32.dll
 0001:0004e11a       _TerminateProcess@8        0044f11a f   kernel32:KERNEL32.dll
 0001:0004e120       _GetCurrentProcess@0       0044f120 f   kernel32:KERNEL32.dll
 0001:0004e126       _GetCommandLineA@0         0044f126 f   kernel32:KERNEL32.dll
 0001:0004e12c       _GetVersion@0              0044f12c f   kernel32:KERNEL32.dll
 0001:0004e132       _IsBadWritePtr@8           0044f132 f   kernel32:KERNEL32.dll
 0001:0004e138       _IsBadReadPtr@8            0044f138 f   kernel32:KERNEL32.dll
 0001:0004e13e       _HeapValidate@12           0044f13e f   kernel32:KERNEL32.dll
 0001:0004e144       _GetLastError@0            0044f144 f   kernel32:KERNEL32.dll
 0001:0004e14a       _WriteFile@20              0044f14a f   kernel32:KERNEL32.dll
 0001:0004e150       _ReadFile@20               0044f150 f   kernel32:KERNEL32.dll
 0001:0004e156       _SetFilePointer@16         0044f156 f   kernel32:KERNEL32.dll
 0001:0004e15c       _SetHandleCount@4          0044f15c f   kernel32:KERNEL32.dll
 0001:0004e162       _GetStdHandle@4            0044f162 f   kernel32:KERNEL32.dll
 0001:0004e168       _GetFileType@4             0044f168 f   kernel32:KERNEL32.dll
 0001:0004e16e       _GetStartupInfoA@4         0044f16e f   kernel32:KERNEL32.dll
 0001:0004e174       _CreateFileA@28            0044f174 f   kernel32:KERNEL32.dll
 0001:0004e17a       _DebugBreak@0              0044f17a f   kernel32:KERNEL32.dll
 0001:0004e180       _InterlockedDecrement@4    0044f180 f   kernel32:KERNEL32.dll
 0001:0004e186       _OutputDebugStringA@4      0044f186 f   kernel32:KERNEL32.dll
 0001:0004e18c       _GetProcAddress@8          0044f18c f   kernel32:KERNEL32.dll
 0001:0004e192       _LoadLibraryA@4            0044f192 f   kernel32:KERNEL32.dll
 0001:0004e198       _InterlockedIncrement@4    0044f198 f   kernel32:KERNEL32.dll
 0001:0004e19e       _GetModuleFileNameA@12     0044f19e f   kernel32:KERNEL32.dll
 0001:0004e1a4       _RaiseException@16         0044f1a4 f   kernel32:KERNEL32.dll
 0001:0004e1aa       _GetFileAttributesA@4      0044f1aa f   kernel32:KERNEL32.dll
 0001:0004e1b0       _UnhandledExceptionFilter@4 0044f1b0 f   kernel32:KERNEL32.dll
 0001:0004e1b6       _FreeEnvironmentStringsA@4 0044f1b6 f   kernel32:KERNEL32.dll
 0001:0004e1bc       _FreeEnvironmentStringsW@4 0044f1bc f   kernel32:KERNEL32.dll
 0001:0004e1c2       _WideCharToMultiByte@32    0044f1c2 f   kernel32:KERNEL32.dll
 0001:0004e1c8       _GetEnvironmentStrings@0   0044f1c8 f   kernel32:KERNEL32.dll
 0001:0004e1ce       _GetEnvironmentStringsW@0  0044f1ce f   kernel32:KERNEL32.dll
 0001:0004e1d4       _HeapDestroy@4             0044f1d4 f   kernel32:KERNEL32.dll
 0001:0004e1da       _HeapCreate@12             0044f1da f   kernel32:KERNEL32.dll
 0001:0004e1e0       _HeapFree@12               0044f1e0 f   kernel32:KERNEL32.dll
 0001:0004e1e6       _VirtualFree@12            0044f1e6 f   kernel32:KERNEL32.dll
 0001:0004e1ec       _HeapAlloc@12              0044f1ec f   kernel32:KERNEL32.dll
 0001:0004e1f2       _HeapReAlloc@16            0044f1f2 f   kernel32:KERNEL32.dll
 0001:0004e1f8       _VirtualAlloc@16           0044f1f8 f   kernel32:KERNEL32.dll
 0001:0004e1fe       _SetConsoleCtrlHandler@8   0044f1fe f   kernel32:KERNEL32.dll
 0001:0004e204       _FlushFileBuffers@4        0044f204 f   kernel32:KERNEL32.dll
 0001:0004e20a       _MultiByteToWideChar@24    0044f20a f   kernel32:KERNEL32.dll
 0001:0004e210       _LCMapStringA@24           0044f210 f   kernel32:KERNEL32.dll
 0001:0004e216       _LCMapStringW@24           0044f216 f   kernel32:KERNEL32.dll
 0001:0004e21c       _SetStdHandle@8            0044f21c f   kernel32:KERNEL32.dll
 0001:0004e222       _SetEndOfFile@4            0044f222 f   kernel32:KERNEL32.dll
 0001:0004e228       _SetUnhandledExceptionFilter@4 0044f228 f   kernel32:KERNEL32.dll
 0001:0004e22e       _IsBadCodePtr@4            0044f22e f   kernel32:KERNEL32.dll
 0001:0004e234       _GetStringTypeA@20         0044f234 f   kernel32:KERNEL32.dll
 0001:0004e23a       _GetStringTypeW@16         0044f23a f   kernel32:KERNEL32.dll
 0001:0004e240       _GetExitCodeProcess@8      0044f240 f   kernel32:KERNEL32.dll
 0001:0004e246       _CreateProcessA@40         0044f246 f   kernel32:KERNEL32.dll
 0001:0004e24c       _GetCPInfo@8               0044f24c f   kernel32:KERNEL32.dll
 0001:0004e252       _GetACP@0                  0044f252 f   kernel32:KERNEL32.dll
 0001:0004e258       _GetOEMCP@0                0044f258 f   kernel32:KERNEL32.dll
 0001:0004e25e       _CompareStringA@24         0044f25e f   kernel32:KERNEL32.dll
 0001:0004e264       _CompareStringW@24         0044f264 f   kernel32:KERNEL32.dll
 0001:0004e26a       _SetEnvironmentVariableA@8 0044f26a f   kernel32:KERNEL32.dll
 0002:00000020       __real@8@40008000000000000000 00450020     agent.obj
 0002:00000028       __real@8@00000000000000000000 00450028     agent.obj
 0002:00000030       ??_C@_0BD@NIGI@?9testForExplosions?$AA@ 00450030     agent.obj
 0002:00000044       ??_C@_0BC@PFLN@?9evaluationPeriod?$AA@ 00450044     agent.obj
 0002:00000058       ??_C@_01KMMP@?$CJ?$AA@     00450058     agent.obj
 0002:0000005c       ??_C@_0CL@EJJA@Read?5in?5error?3?5expecting?5opening@ 0045005c     agent.obj
 0002:00000088       ??_C@_01GFI@?$CI?$AA@      00450088     agent.obj
 0002:0000008c       ??_C@_01BJG@?6?$AA@        0045008c     agent.obj
 0002:00000090       ??_C@_01FAJB@?$DL?$AA@     00450090     agent.obj
 0002:00000098       __real@8@4000c90fcf80dc337000 00450098     agent.obj
 0002:000000a0       __real@8@4006b400000000000000 004500a0     agent.obj
 0002:000000a8       ??_C@_0BE@NKOP@Creating?5agent?5?$CFd?4?6?$AA@ 004500a8     environment.obj
 0002:000000c0       __real@8@4004f000000000000000 004500c0     environment.obj
 0002:000000c8       ??_C@_0BL@EINK@?7?5?9useReactiveController?5?6?$AA@ 004500c8     environment.obj
 0002:000000e4       ??_C@_0BN@KECD@?7?5?9recordHiddenLayerValues?5?6?$AA@ 004500e4     environment.obj
 0002:00000104       ??_C@_0BH@OLFE@?7?5?9testForExplosions?5?6?$AA@ 00450104     environment.obj
 0002:0000011c       ??_C@_0BK@BKCA@?7?5?9hiddenNodes?5?$FLinteger?$FN?6?$AA@ 0045011c     environment.obj
 0002:00000138       ??_C@_0CH@MPKH@?7?5?9terminateIf?5?$FLobject?5name?$FN?5?$FLhe@ 00450138     environment.obj
 0002:00000160       ??_C@_0CC@FCLB@?7?5?9multForwardDist?5?$FLobject?5name?$FN@ 00450160     environment.obj
 0002:00000184       ??_C@_0CB@HJC@?7?5?9addForwardDist?5?$FLobject?5name?$FN?6@ 00450184     environment.obj
 0002:000001a8       ??_C@_0BP@LIGA@?7?5?9objectToMove?5?$FLobject?5name?$FN?6?$AA@ 004501a8     environment.obj
 0002:000001c8       ??_C@_0BB@EONF@?7?5?9maximizeTime?6?$AA@ 004501c8     environment.obj
 0002:000001dc       ??_C@_0BL@PJDP@?7?5?9mutationRate?5?$FLinteger?$FN?6?$AA@ 004501dc     environment.obj
 0002:000001f8       ??_C@_0BK@EJLB@?7?5?9generations?5?$FLinteger?$FN?6?$AA@ 004501f8     environment.obj
 0002:00000214       ??_C@_0BN@BBEJ@?7?5?9populationSize?5?$FLinteger?$FN?6?$AA@ 00450214     environment.obj
 0002:00000234       ??_C@_0BP@OIPP@?7?5?9evaluationPeriod?5?$FLinteger?$FN?6?$AA@ 00450234     environment.obj
 0002:00000254       ??_C@_0BK@PLBG@?7?5?9evaluations?5?$FLinteger?$FN?6?$AA@ 00450254     environment.obj
 0002:00000270       ??_C@_0BN@PEAM@?7?5?9cameraDistance?5?$FLinteger?$FN?6?$AA@ 00450270     environment.obj
 0002:00000290       ??_C@_0BB@PAAK@Valid?5commands?3?6?$AA@ 00450290     environment.obj
 0002:000002a4       ??_C@_0DK@LAM@ERROR?3?5command?5?$CFs?5not?5recognized@ 004502a4     environment.obj
 0002:000002e0       ??_C@_0BH@NJEM@?9useReactiveController?$AA@ 004502e0     environment.obj
 0002:000002f8       ??_C@_0BG@DPHB@data?1hiddenLayers?4dat?$AA@ 004502f8     environment.obj
 0002:00000310       ??_C@_0BJ@INNO@?9recordHiddenLayerValues?$AA@ 00450310     environment.obj
 0002:0000032c       ??_C@_0N@LPHL@?9hiddenNodes?$AA@ 0045032c     environment.obj
 0002:0000033c       ??_C@_0BA@IE@?9cameraDistance?$AA@ 0045033c     environment.obj
 0002:0000034c       ??_C@_0N@HCHC@?9terminateIf?$AA@ 0045034c     environment.obj
 0002:0000035c       ??_C@_09PFDE@?9multTime?$AA@ 0045035c     environment.obj
 0002:00000368       ??_C@_08JCOF@?9addTime?$AA@ 00450368     environment.obj
 0002:00000374       ??_C@_0BB@PAOD@?9multForwardDist?$AA@ 00450374     environment.obj
 0002:00000388       ??_C@_0BA@BJOK@?9addForwardDist?$AA@ 00450388     environment.obj
 0002:00000398       ??_C@_0O@NJI@?9objectToMove?$AA@ 00450398     environment.obj
 0002:000003a8       ??_C@_0O@LKML@?9mutationRate?$AA@ 004503a8     environment.obj
 0002:000003b8       ??_C@_0N@PEML@?9generations?$AA@ 004503b8     environment.obj
 0002:000003c8       ??_C@_0BA@EPOF@?9populationSize?$AA@ 004503c8     environment.obj
 0002:000003d8       ??_C@_09HJGL@?9softness?$AA@ 004503d8     environment.obj
 0002:000003e4       ??_C@_0N@DENA@?9restitution?$AA@ 004503e4     environment.obj
 0002:000003f4       ??_C@_0N@IEGL@?9createPlume?$AA@ 004503f4     environment.obj
 0002:00000404       ??_C@_0N@NALN@?9evaluations?$AA@ 00450404     environment.obj
 0002:00000414       ??_C@_0BG@JAPO@?9displacementDistance?$AA@ 00450414     environment.obj
 0002:0000042c       ??_C@_07DN@?9copies?$AA@   0045042c     environment.obj
 0002:00000434       ??_C@_0BB@JDMP@data?1frame?$CFd?4dat?$AA@ 00450434     environment.obj
 0002:00000448       __real@8@3fff8000000000000000 00450448     matrix.obj
 0002:00000450       __real@8@4004d6e76c8b43958000 00450450     matrix.obj
 0002:00000458       __real@8@c004d6f27bb2fec57000 00450458     matrix.obj
 0002:00000460       ??_C@_06BOG@?$CF3?43f?5?$AA@ 00450460     matrix.obj
 0002:00000468       ??_C@_0N@NFNN@rename?5?$CFs?5?$CFs?$AA@ 00450468     matrix.obj
 0002:00000478       ??_C@_01FCOA@?5?$AA@       00450478     matrix.obj
 0002:0000047c       ??_C@_00A@?$AA@            0045047c     mejoint.obj
 0002:00000480       __real@8@3ffbccccccccccccd000 00450480     mejoint.obj
 0002:00000488       ??_C@_05KODA@?$CFs_?$CFd?$AA@ 00450488     mejoint.obj
 0002:00000490       ??_C@_0CC@MDOG@Contains?5a?5proprioceptive?5sensor@ 00450490     mejoint.obj
 0002:000004b4       ??_C@_0CA@KKJ@?7?5Normal?5?5?5?$FL?$CF2?42f?0?$CF2?42f?0?$CF2?42f?$FN?6?$AA@ 004504b4     mejoint.obj
 0002:000004d4       ??_C@_0CA@PFKL@?7?5Position?5?$FL?$CF2?42f?0?$CF2?42f?0?$CF2?42f?$FN?6?$AA@ 004504d4     mejoint.obj
 0002:000004f4       ??_C@_07NIFM@joint?4?6?$AA@ 004504f4     mejoint.obj
 0002:000004fc       ??_C@_08CHPO@?5spring?5?$AA@ 004504fc     mejoint.obj
 0002:00000508       ??_C@_07FJJK@?5world?5?$AA@ 00450508     mejoint.obj
 0002:00000510       ??_C@_0M@GGD@?5prismatic?5?$AA@ 00450510     mejoint.obj
 0002:0000051c       ??_C@_07PEHA@?5fixed?5?$AA@ 0045051c     mejoint.obj
 0002:00000524       ??_C@_0BC@FCHF@?5ball?5and?5socket?5?$AA@ 00450524     mejoint.obj
 0002:00000538       ??_C@_07BMPL@?5hinge?5?$AA@ 00450538     mejoint.obj
 0002:00000540       ??_C@_0BM@OPCM@?7?5Connects?5?$CFs?5to?5?$CFs?5using?5a?$AA@ 00450540     mejoint.obj
 0002:0000055c       ??_C@_0O@GELH@Joint?5?$CFd?3?5?$CFs?6?$AA@ 0045055c     mejoint.obj
 0002:00000570       __real@8@4001c90fcf80dc337000 00450570     mejoint.obj
 0002:00000578       __real@8@c0008000000000000000 00450578     mejoint.obj
 0002:00000580       __real@8@3ffe8000000000000000 00450580     mejoint.obj
 0002:00000588       __real@8@bffe8000000000000000 00450588     mejoint.obj
 0002:00000590       __real@8@4001a000000000000000 00450590     mejoint.obj
 0002:00000598       __real@8@4012f424000000000000 00450598     mejoint.obj
 0002:000005a0       ??_C@_0BC@NFGJ@?7?5?9recordTorque?5?6?$AA@ 004505a0     mejoint.obj
 0002:000005b4       ??_C@_0BM@FGLG@?7?5?9motorizedBy?5?$FLjointName?$FN?6?$AA@ 004505b4     mejoint.obj
 0002:000005d0       ??_C@_0O@LCNO@?7?5?9addMotor?5?6?$AA@ 004505d0     mejoint.obj
 0002:000005e0       ??_C@_0P@JDGE@?7?5?9addSensor?5?6?$AA@ 004505e0     mejoint.obj
 0002:000005f0       ??_C@_0BB@IOJ@?7?5?9binaryMotor?5?6?$AA@ 004505f0     mejoint.obj
 0002:00000604       ??_C@_0BI@GNKH@?7?5?9motorSpeed?5?$FLvalue?$FN?5?6?$AA@ 00450604     mejoint.obj
 0002:0000061c       ??_C@_0BI@MPIH@?7?5?9motorForce?5?$FLvalue?$FN?5?6?$AA@ 0045061c     mejoint.obj
 0002:00000634       ??_C@_0CN@NNPP@?7?5?9springConstants?5?$FLrestitution?5@ 00450634     mejoint.obj
 0002:00000664       ??_C@_0DO@KPCP@?7?5?$CIfor?5Prismatic?$CJ?3?5?9jointLimits?5@ 00450664     mejoint.obj
 0002:000006a4       ??_C@_0DI@LCAL@?7?5?$CIfor?5Wheel?$CJ?3?5?9jointLimits?5?$FLmin@ 004506a4     mejoint.obj
 0002:000006dc       ??_C@_0CO@GPI@?7?5?$CIfor?5BallAndSocket?$CJ?3?5?9jointLim@ 004506dc     mejoint.obj
 0002:0000070c       ??_C@_0DC@OBBL@?7?5?$CIfor?5Hinge?$CJ?3?5?9jointLimits?5?$FLmin@ 0045070c     mejoint.obj
 0002:00000740       ??_C@_0BJ@GFJM@?7?5?9jointNormal?5?$FLx?5y?5z?$FN?5?6?$AA@ 00450740     mejoint.obj
 0002:0000075c       ??_C@_0CE@IFLK@?7?5?9jointPosition?5?$FLobject?5?$HM?5x?5y?5z@ 0045075c     mejoint.obj
 0002:00000780       ??_C@_0EF@BIFG@?7?5?9jointType?5?$FLHinge?5BallAndSocke@ 00450780     mejoint.obj
 0002:000007c8       ??_C@_0BP@FEIC@?7?5?9connect?5?$FLobject1?5object2?$FN?5?6?$AA@ 004507c8     mejoint.obj
 0002:000007e8       ??_C@_0CP@DGIM@ERROR?3?5command?5?$CFs?5not?5recognized@ 004507e8     mejoint.obj
 0002:00000818       ??_C@_0BE@DEGM@data?1torqueFile?4dat?$AA@ 00450818     mejoint.obj
 0002:0000082c       ??_C@_0O@POAN@?9recordTorque?$AA@ 0045082c     mejoint.obj
 0002:0000083c       ??_C@_09NJEC@?9uniAxis2?$AA@ 0045083c     mejoint.obj
 0002:00000848       ??_C@_09CGPL@?9uniAxis1?$AA@ 00450848     mejoint.obj
 0002:00000854       ??_C@_0N@KBBM@?9binaryMotor?$AA@ 00450854     mejoint.obj
 0002:00000864       ??_C@_0N@PJNO@?9motorizedBy?$AA@ 00450864     mejoint.obj
 0002:00000874       ??_C@_09JJJC@?9addMotor?$AA@ 00450874     mejoint.obj
 0002:00000880       ??_C@_0L@NGCJ@?9addSensor?$AA@ 00450880     mejoint.obj
 0002:0000088c       ??_C@_0M@DNEB@?9motorSpeed?$AA@ 0045088c     mejoint.obj
 0002:00000898       ??_C@_0BC@KILN@?9compressionForce?$AA@ 00450898     mejoint.obj
 0002:000008ac       ??_C@_0M@NIMI@?9motorForce?$AA@ 004508ac     mejoint.obj
 0002:000008b8       ??_C@_0BB@NNKP@?9springConstants?$AA@ 004508b8     mejoint.obj
 0002:000008cc       ??_C@_0N@MCGM@?9jointLimits?$AA@ 004508cc     mejoint.obj
 0002:000008dc       ??_C@_0N@GKCC@?9jointNormal?$AA@ 004508dc     mejoint.obj
 0002:000008ec       ??_C@_0P@CIEG@?9jointPosition?$AA@ 004508ec     mejoint.obj
 0002:000008fc       ??_C@_06HIEH@Spring?$AA@   004508fc     mejoint.obj
 0002:00000904       ??_C@_07KFFH@ToWorld?$AA@  00450904     mejoint.obj
 0002:0000090c       ??_C@_09DCGP@Prismatic?$AA@ 0045090c     mejoint.obj
 0002:00000918       ??_C@_05FIKM@Wheel?$AA@    00450918     mejoint.obj
 0002:00000920       ??_C@_05CAKF@Fixed?$AA@    00450920     mejoint.obj
 0002:00000928       ??_C@_0O@GDOD@BallAndSocket?$AA@ 00450928     mejoint.obj
 0002:00000938       ??_C@_05KLIP@Hinge?$AA@    00450938     mejoint.obj
 0002:00000940       ??_C@_0L@DAHM@?9jointType?$AA@ 00450940     mejoint.obj
 0002:0000094c       ??_C@_0CE@CAJN@Error?3?5could?5not?5locate?5object?5?$CF@ 0045094c     mejoint.obj
 0002:00000970       ??_C@_08BLLL@?9connect?$AA@ 00450970     mejoint.obj
 0002:00000980       __real@8@c005c800000000000000 00450980     meobject.obj
 0002:00000988       ??_C@_02DIMO@?$FN?6?$AA@   00450988     meobject.obj
 0002:0000098c       ??_C@_01FMOK@n?$AA@        0045098c     meobject.obj
 0002:00000990       ??_C@_01KAHP@y?$AA@        00450990     meobject.obj
 0002:00000994       ??_C@_0BD@LGAK@?7?5Floor?5contact?3?5?$FL?$AA@ 00450994     meobject.obj
 0002:000009a8       ??_C@_0BO@KKJM@?7?5Colour?5?$FL?$CF2?42f?0?$CF2?42f?0?$CF2?42f?$FN?6?$AA@ 004509a8     meobject.obj
 0002:000009c8       ??_C@_0BB@GPLA@?7?5Weight?3?5?$CF2?42f?6?$AA@ 004509c8     meobject.obj
 0002:000009dc       ??_C@_0BG@COIH@?7?5Sphere?5?$FLr?$DN?$CF2?42f?5m?$FN?6?$AA@ 004509dc     meobject.obj
 0002:000009f4       ??_C@_0CD@LPA@?7?5Cylinder?5?$FLh?$DN?$CF2?42f?5m?0?5r?$DN?$CF2?42f?5m@ 004509f4     meobject.obj
 0002:00000a18       ??_C@_0DH@EOKJ@?7?5Rectangular?5solid?5?$FLw?$DN?$CF2?42f?5m?0?5@ 00450a18     meobject.obj
 0002:00000a50       ??_C@_0CA@PNIF@?7?5Rotation?5?$FL?$CF2?42f?0?$CF2?42f?0?$CF2?42f?$FN?6?$AA@ 00450a50     meobject.obj
 0002:00000a70       ??_C@_0P@FPNL@Object?5?$CFd?3?5?$CFs?6?$AA@ 00450a70     meobject.obj
 0002:00000a80       ??_C@_0CD@BEOI@Object?5?$CFs?5not?5found?5in?5object?5?$CFs@ 00450a80     meobject.obj
 0002:00000aa4       ??_C@_03KPEJ@?5?$HN?6?$AA@ 00450aa4     meobject.obj
 0002:00000aa8       ??_C@_09CHOF@SPHERE?5?$HL?5?$AA@ 00450aa8     meobject.obj
 0002:00000ab4       ??_C@_0M@LIG@CYLINDER?5?$HL?5?$AA@ 00450ab4     meobject.obj
 0002:00000ac0       ??_C@_0BL@HDMF@?$CF3?43f?5?$CF3?43f?5?$CF3?43f?5?$CF3?43f?5?$HN?6?$AA@ 00450ac0     meobject.obj
 0002:00000adc       ??_C@_0BD@FOCF@?$CF3?43f?5?$CF3?43f?5?$CF3?43f?5?$AA@ 00450adc     meobject.obj
 0002:00000af0       __real@8@4005c800000000000000 00450af0     meobject.obj
 0002:00000af8       ??_C@_0N@FBAN@RECTANGLE?5?$HL?5?$AA@ 00450af8     meobject.obj
 0002:00000b08       __real@8@bff583126e978d4fe000 00450b08     meobject.obj
 0002:00000b10       __real@8@3ff583126e978d4fe000 00450b10     meobject.obj
 0002:00000b18       __real@8@3ff1d1b71758e2196800 00450b18     meobject.obj
 0002:00000b20       ??_C@_0BB@MBCC@?7?5?9addDetacher?5?6?$AA@ 00450b20     meobject.obj
 0002:00000b34       ??_C@_0BJ@OBPH@?7?5?9addAttachmentSensor?5?6?$AA@ 00450b34     meobject.obj
 0002:00000b50       ??_C@_0BE@IGCB@?7?5?9addAgentSensor?5?6?$AA@ 00450b50     meobject.obj
 0002:00000b64       ??_C@_0BE@OPCN@?7?5?9addLightSensor?5?6?$AA@ 00450b64     meobject.obj
 0002:00000b78       ??_C@_0BE@KKGG@?7?5?9addChemoSensor?5?6?$AA@ 00450b78     meobject.obj
 0002:00000b8c       ??_C@_0BE@LCLH@?7?5?9addTouchSensor?5?6?$AA@ 00450b8c     meobject.obj
 0002:00000ba0       ??_C@_0O@BAKF@?7?5?9attacher?5?6?$AA@ 00450ba0     meobject.obj
 0002:00000bb0       ??_C@_0BC@ODLG@?7?5?9floorContact?5?6?$AA@ 00450bb0     meobject.obj
 0002:00000bc4       ??_C@_0BI@NDEN@?7?5?9texture?5?$FLfileName?$FN?5?6?$AA@ 00450bc4     meobject.obj
 0002:00000bdc       ??_C@_0BE@PPP@?7?5?9colour?5?$FLr?5g?5b?$FN?5?6?$AA@ 00450bdc     meobject.obj
 0002:00000bf0       ??_C@_0BJ@IKCL@?7?5?9lockMassWith?5?$FLname?$FN?5?6?$AA@ 00450bf0     meobject.obj
 0002:00000c0c       ??_C@_0BL@HIPI@?7?5?9lockHeightWith?5?$FLname?$FN?5?6?$AA@ 00450c0c     meobject.obj
 0002:00000c28       ??_C@_0DC@MNDO@?7?5?9evolve?5?$FL?9mass?5?$FLmin?5max?$FN?$FN?5?$FL?9he@ 00450c28     meobject.obj
 0002:00000c5c       ??_C@_0BG@GELH@?7?5?9mass?5?$FLkilograms?$FN?5?6?$AA@ 00450c5c     meobject.obj
 0002:00000c74       ??_C@_0DK@FBHK@?7?5?9shape?5?$FL?9sphere?5r?$FN?5?$FL?9cylinder?5@ 00450c74     meobject.obj
 0002:00000cb0       ??_C@_0BG@CKID@?7?5?9rotation?5?$FLx?5y?5z?$FN?5?6?$AA@ 00450cb0     meobject.obj
 0002:00000cc8       ??_C@_0BG@PBCE@?7?5?9position?5?$FLx?5y?5z?$FN?5?6?$AA@ 00450cc8     meobject.obj
 0002:00000ce0       ??_C@_0DA@OJBG@ERROR?3?5command?5?$CFs?5not?5recognized@ 00450ce0     meobject.obj
 0002:00000d10       ??_C@_0BA@PHLK@?9addTouchSensor?$AA@ 00450d10     meobject.obj
 0002:00000d20       ??_C@_09HBID@?9attacher?$AA@ 00450d20     meobject.obj
 0002:00000d2c       ??_C@_0O@MOEM@?9floorContact?$AA@ 00450d2c     meobject.obj
 0002:00000d3c       ??_C@_08BEFJ@?9texture?$AA@ 00450d3c     meobject.obj
 0002:00000d48       ??_C@_07MGIN@?9colour?$AA@ 00450d48     meobject.obj
 0002:00000d50       ??_C@_0L@EEGI@?9zPosition?$AA@ 00450d50     meobject.obj
 0002:00000d5c       ??_C@_0L@CLA@?9yPosition?$AA@ 00450d5c     meobject.obj
 0002:00000d68       ??_C@_0L@MAPI@?9xPosition?$AA@ 00450d68     meobject.obj
 0002:00000d74       ??_C@_07NICM@?9height?$AA@ 00450d74     meobject.obj
 0002:00000d7c       ??_C@_07EGLA@?9evolve?$AA@ 00450d7c     meobject.obj
 0002:00000d84       ??_C@_0BE@IBDD@?9disableContactWith?$AA@ 00450d84     meobject.obj
 0002:00000d98       ??_C@_0BA@HMHE@?9lockHeightWith?$AA@ 00450d98     meobject.obj
 0002:00000da8       ??_C@_0O@DHFK@?9lockMassWith?$AA@ 00450da8     meobject.obj
 0002:00000db8       ??_C@_05FLFM@?9mass?$AA@   00450db8     meobject.obj
 0002:00000dc0       __real@8@4001860a8a55e8224800 00450dc0     meobject.obj
 0002:00000dc8       ??_C@_07MDBK@?9sphere?$AA@ 00450dc8     meobject.obj
 0002:00000dd0       ??_C@_09LFPM@?9cylinder?$AA@ 00450dd0     meobject.obj
 0002:00000ddc       ??_C@_0L@EHBO@?9rectangle?$AA@ 00450ddc     meobject.obj
 0002:00000de8       ??_C@_06JGGK@?9shape?$AA@  00450de8     meobject.obj
 0002:00000df0       ??_C@_09PHEM@?9rotation?$AA@ 00450df0     meobject.obj
 0002:00000dfc       ??_C@_09IOFL@?9position?$AA@ 00450dfc     meobject.obj
 0002:00000e08       ??_C@_08CANB@textures?$AA@ 00450e08     MorphEngine.obj
 0002:00000e14       ??_C@_0BP@FNFE@process?5?9p?5MorphEngine?4exe?5low?$AA@ 00450e14     MorphEngine.obj
 0002:00000e38       __real@8@3ffcccccccccccccd000 00450e38     plumePoint.obj
 0002:00000e40       ??_C@_07GNON@env?4dat?$AA@ 00450e40     simParams.obj
 0002:00000e48       ??_C@_06JMLC@del?5?$CFs?$AA@ 00450e48     simParams.obj
 0002:00000e50       __real@8@400dfffe000000000000 00450e50     simParams.obj
 0002:00000e58       ??_C@_0BG@JANG@data?1run?$CFd_debris?4dat?$AA@ 00450e58     simParams.obj
 0002:00000e70       ??_C@_0BK@KDBA@data?1run?$CFd_trajectory?4dat?$AA@ 00450e70     simParams.obj
 0002:00000e8c       ??_C@_0BF@EBAO@data?1run?$CFd_noise?4dat?$AA@ 00450e8c     simParams.obj
 0002:00000ea4       ??_C@_0BD@JJDK@data?1plumeData?4dat?$AA@ 00450ea4     simParams.obj
 0002:00000eb8       ??_C@_0BE@MBGL@data?1footprints?4dat?$AA@ 00450eb8     simParams.obj
 0002:00000ecc       ??_C@_02HAOM@?9n?$AA@      00450ecc     simParams.obj
 0002:00000ed0       ??_C@_02NGML@?9?$DP?$AA@   00450ed0     simParams.obj
 0002:00000ed4       ??_C@_02IPJO@?9h?$AA@      00450ed4     simParams.obj
 0002:00000ed8       ??_C@_02HBHK@?9d?$AA@      00450ed8     simParams.obj
 0002:00000edc       ??_C@_0N@FEOL@Creatures?1?$CFs?$AA@ 00450edc     simParams.obj
 0002:00000eec       ??_C@_02CFMC@?9l?$AA@      00450eec     simParams.obj
 0002:00000ef0       ??_C@_02CHHI@?9r?$AA@      00450ef0     simParams.obj
 0002:00000ef4       ??_C@_05ELBP@?9null?$AA@   00450ef4     simParams.obj
 0002:00000efc       ??_C@_05MCFB@data?1?$AA@   00450efc     simParams.obj
 0002:00000f04       ??_C@_02HBLB@?9a?$AA@      00450f04     simParams.obj
 0002:00000f08       ??_C@_0CJ@FNAE@?9wireframe?5?7?5Visualize?5using?5wir@ 00450f08     simParams.obj
 0002:00000f34       ??_C@_0DK@PJIF@?9null?5?7?7?5Perform?5evolution?5with?5@ 00450f34     simParams.obj
 0002:00000f70       ??_C@_0DP@FMI@?9r?5?$FLinteger?$FN?5?7?5Start?5evolution?5w@ 00450f70     simParams.obj
 0002:00000fb0       ??_C@_0CF@LAGL@?9n?5?7?7?5Show?5neural?5network?5behavi@ 00450fb0     simParams.obj
 0002:00000fd8       ??_C@_0DK@DCPP@?9l?5?$FLfilename?$FN?5?7?5Use?5the?5creature@ 00450fd8     simParams.obj
 0002:00001014       ??_C@_0BG@IBDA@?9h?5?9?$DP?5?7?7?5This?5screen?6?$AA@ 00451014     simParams.obj
 0002:0000102c       ??_C@_0EH@LELP@?9a?5?$FLfilename?$FN?5?7?5Analyze?5an?5evolv@ 0045102c     simParams.obj
 0002:00001074       ??_C@_09NCIH@Options?3?6?$AA@ 00451074     simParams.obj
 0002:00001080       ??_C@_0BO@NBL@Release?5Date?3?5April?53?0?52001?6?6?$AA@ 00451080     simParams.obj
 0002:000010a0       ??_C@_0BG@FPPA@Author?3?5Josh?5Bongard?6?$AA@ 004510a0     simParams.obj
 0002:000010b8       ??_C@_0BJ@GNBC@MorphEngine?5version?51?40?6?$AA@ 004510b8     simParams.obj
 0002:000010d4       ??_C@_0CH@OFFJ@?9?9?9?9?9?9?9?9?9?9?9?9?9?9?9?9?9?9?9?9?9?9?9?9?9?9?9?9?9?9?9?9@ 004510d4     simParams.obj
 0002:00001100       __real@8@3ffaccccccccccccd000 00451100     debris.obj
 0002:00001108       __real@8@4002a000000000000000 00451108     debris.obj
 0002:00001110       __real@8@4000c000000000000000 00451110     debris.obj
 0002:00001118       ??_7dxGeom@@6B@            00451118     ode:collision_kernel.obj
 0002:00001124       ??_7dxUserGeom@@6B@        00451124     ode:collision_kernel.obj
 0002:00001130       ??_C@_0EF@OGHP@too?5many?5user?5classes?0?5you?5must?5@ 00451130     ode:collision_kernel.obj
 0002:00001178       ??_C@_0BK@NGN@bad?5body?5pointer?5in?5joint?$AA@ 00451178     ode:ode.obj
 0002:00001194       ??_C@_0CE@NFMO@non?9distinct?5body?5pointers?5in?5jo@ 00451194     ode:ode.obj
 0002:000011b8       ??_C@_0BP@MDLP@bad?5joint?5node?5pointer?5in?5body?$AA@ 004511b8     ode:ode.obj
 0002:000011d8       ??_C@_0DA@CMJJ@bad?5body?5pointer?5in?5joint?5node?5o@ 004511d8     ode:ode.obj
 0002:00001208       ??_C@_0DA@BHGG@bad?5body?5pointer?5in?5joint?5node?5o@ 00451208     ode:ode.obj
 0002:00001238       ??_C@_0CJ@MHHI@joint?5not?5in?5joint?5list?5of?5attac@ 00451238     ode:ode.obj
 0002:00001264       ??_C@_0CA@KEPJ@bad?5world?5pointer?5in?5joint?5list?$AA@ 00451264     ode:ode.obj
 0002:00001284       ??_C@_0BP@GINC@bad?5world?5pointer?5in?5body?5list?$AA@ 00451284     ode:ode.obj
 0002:000012a4       ??_C@_0BG@EFOK@joint?5count?5incorrect?$AA@ 004512a4     ode:ode.obj
 0002:000012bc       ??_C@_0BF@KJJJ@body?5count?5incorrect?$AA@ 004512bc     ode:ode.obj
 0002:000012d4       ??_C@_0BP@PMGB@bad?5tome?5pointer?5in?5joint?5list?$AA@ 004512d4     ode:ode.obj
 0002:000012f4       ??_C@_0BO@PAFH@bad?5tome?5pointer?5in?5body?5list?$AA@ 004512f4     ode:ode.obj
 0002:00001314       ??_C@_0BF@BMH@joint?5list?5has?5loops?$AA@ 00451314     ode:ode.obj
 0002:0000132c       ??_C@_0BE@HCMJ@body?5list?5has?5loops?$AA@ 0045132c     ode:ode.obj
 0002:00001340       ??_C@_0DE@KLGH@warning?3?5destroying?5world?5contai@ 00451340     ode:ode.obj
 0002:00001374       ??_7dxSphere@@6B@          00451374     ode:collision_std.obj
 0002:00001380       ??_7dxBox@@6B@             00451380     ode:collision_std.obj
 0002:0000138c       ??_7dxCCylinder@@6B@       0045138c     ode:collision_std.obj
 0002:00001398       ??_7dxPlane@@6B@           00451398     ode:collision_std.obj
 0002:000013a4       ??_7dxRay@@6B@             004513a4     ode:collision_std.obj
 0002:000013b0       __real@8@4000c90fdaa22168c000 004513b0     ode:collision_std.obj
 0002:000013b8       __real@8@4001c90fdaa22168c000 004513b8     ode:collision_std.obj
 0002:000013c0       __real@8@bfff8000000000000000 004513c0     ode:collision_std.obj
 0002:000013c8       __real@8@3fff8666666666666800 004513c8     ode:collision_std.obj
 0002:000013d0       __real@8@3feea7c5ac471b478800 004513d0     ode:collision_std.obj
 0002:000013d8       __real@8@40018000000000000000 004513d8     ode:collision_std.obj
 0002:000013e0       ??_7dxSpace@@6B@           004513e0     ode:collision_space.obj
 0002:00001408       ??_7dxSimpleSpace@@6B@     00451408     ode:collision_space.obj
 0002:00001430       ??_7dxHashSpace@@6B@       00451430     ode:collision_space.obj
 0002:00001458       ??_C@_0CM@EOIA@dxHashSpace?3?3collide2?$CI?$CJ?5not?5yet?5@ 00451458     ode:collision_space.obj
 0002:00001488       __real@8@c000c90fdaa22168c000 00451488     ode:joint.obj
 0002:00001490       ??_C@_0BE@JLJO@not?5yet?5implemented?$AA@ 00451490     ode:joint.obj
 0002:000014a4       ??_C@_0BN@KMPA@this?5should?5never?5get?5called?$AA@ 004514a4     ode:joint.obj
 0002:000014c8       __real@8@4001860a91c16b9b2800 004514c8     ode:mass.obj
 0002:000014d0       __real@8@3ffdccccccccccccd000 004514d0     ode:mass.obj
 0002:000014d8       __real@8@3ffd8000000000000000 004514d8     ode:mass.obj
 0002:000014e0       __real@8@3ffbaaaaaaaaaaaaa800 004514e0     ode:mass.obj
 0002:000014e8       ??_7dxGeomTransform@@6B@   004514e8     ode:collision_transform.obj
 0002:000014f8       __real@8@3ffeb504f333f9de6800 004514f8     ode:matrix.obj
 0002:00001500       ??_C@_0N@BCLF@ODE?5Error?5?$CFd?$AA@ 00451500     ode:error.obj
 0002:00001510       ??_C@_0BG@BNEH@ODE?5INTERNAL?5ERROR?5?$CFd?$AA@ 00451510     ode:error.obj
 0002:00001528       ??_C@_0M@PMNE@ODE?5Message?$AA@ 00451528     ode:error.obj
 0002:00001534       ??_C@_05DOAM@?6?$CFs?3?5?$AA@ 00451534     ode:error.obj
 0002:0000153c       ??_C@_08ELHM@?6?$CFs?5?$CFd?3?5?$AA@ 0045153c     ode:error.obj
 0002:00001548       ??_C@_0BE@EFEL@num_bytes?5too?5large?$AA@ 00451548     ode:obstack.obj
 0002:00001560       __real@8@3ffcaaaaaaaaaaaaa800 00451560     ode:step.obj
 0002:00001568       ??_C@_05MGIN@?$CF?46e?6?$AA@ 00451568     ode:step.obj
 0002:00001570       __real@8@3fdf8000000000000000 00451570     ode:misc.obj
 0002:00001578       __real@8@3fdf8000000080000000 00451578     ode:misc.obj
 0002:00001580       ??_C@_0CE@OIJL@LCP?5internal?5error?0?5s?5?$DM?$DN?50?5?$CIs?$DN?$CF?4@ 00451580     ode:lcp.obj
 0002:000015a4       ??_C@_0BM@HMLD@time?$DN?$CF10?43f?5ms?5?5avg?$DN?$CF10?44f?6?$AA@ 004515a4     ode:lcp.obj
 0002:000015c0       ??_C@_0BP@MLPP@passed?3?5NL?$DN?$CF3d?5NH?$DN?$CF3d?5C?$DN?$CF3d?5?5?5?$AA@ 004515c0     ode:lcp.obj
 0002:000015e0       ??_C@_0CL@IADA@FAILED?3?5i?$DN?$CFd?5x?$DN?$CF?44e?5w?$DN?$CF?44e?5lo?$DN?$CF?4@ 004515e0     ode:lcp.obj
 0002:0000160c       ??_C@_0CF@MACO@A?$CKx?5?$DN?5b?$CLw?0?5maximum?5difference?5?$DN?5@ 0045160c     ode:lcp.obj
 0002:00001638       __real@8@3fe189705f4136b4a800 00451638     ode:lcp.obj
 0002:00001640       __real@8@4008fa00000000000000 00451640     ode:lcp.obj
 0002:00001648       __real@8@3ff8a3d70a3d70a3d800 00451648     ode:lcp.obj
 0002:00001650       ??_C@_0BB@GJAF@dTestSolveLCP?$CI?$CJ?6?$AA@ 00451650     ode:lcp.obj
 0002:00001664       ??_C@_05EIO@TOTAL?$AA@     00451664     ode:timer.obj
 0002:0000166c       ??_C@_0BI@KOGN@?5?5?$CIavg?5?$CF7?42fms?5?$CF6?42f?$CF?$CF?$CJ?$AA@ 0045166c     ode:timer.obj
 0002:00001684       ??_C@_0BF@GOPI@?$CF?9?$CKs?5?$CF7?42fms?5?$CF6?42f?$CF?$CF?$AA@ 00451684     ode:timer.obj
 0002:0000169c       ??_C@_0BM@BDEB@s?5resolution?$CJ?6?9?9?9?9?9?9?9?9?9?9?9?9?6?$AA@ 0045169c     ode:timer.obj
 0002:000016b8       ??_C@_05OGFO@?$CF?42f?5?$AA@ 004516b8     ode:timer.obj
 0002:000016c0       ??_C@_0BA@ECIH@?6Timer?5Report?5?$CI?$AA@ 004516c0     ode:timer.obj
 0002:000016d0       ??_C@_01FOJL@u?$AA@        004516d0     ode:timer.obj
 0002:000016d4       ??_C@_01KDFD@m?$AA@        004516d4     ode:timer.obj
 0002:000016d8       __real@8@3ffeffffef39085f4800 004516d8     ode:timer.obj
 0002:000016ec       ??_C@_0CH@FEEC@Can?5not?5read?5data?5from?5image?5fil@ 004516ec     drawstuff:drawstuff.obj
 0002:00001714       ??_C@_0CN@KJAC@image?5file?5?$CC?$CFs?$CC?5must?5have?5color?5@ 00451714     drawstuff:drawstuff.obj
 0002:00001744       ??_C@_0BE@NGEB@bad?5image?5file?5?$CC?$CFs?$CC?$AA@ 00451744     drawstuff:drawstuff.obj
 0002:00001758       ??_C@_0DD@DFFM@image?5file?5?$CC?$CFs?$CC?5is?5not?5a?5binary?5@ 00451758     drawstuff:drawstuff.obj
 0002:0000178c       ??_C@_0BL@NHJA@Can?8t?5open?5image?5file?5?$GA?$CFs?8?$AA@ 0045178c     drawstuff:drawstuff.obj
 0002:000017a8       ??_C@_02JKAF@rb?$AA@       004517a8     drawstuff:drawstuff.obj
 0002:000017ac       ??_C@_0BP@KIAJ@unexpected?5end?5of?5file?5in?5?$CC?$CFs?$CC?$AA@ 004517ac     drawstuff:drawstuff.obj
 0002:000017cc       __real@4@3ffe8000000000000000 004517cc     drawstuff:drawstuff.obj
 0002:000017d0       __real@8@3ff98efa351294e9c800 004517d0     drawstuff:drawstuff.obj
 0002:000017d8       __real@4@00000000000000000000 004517d8     drawstuff:drawstuff.obj
 0002:000017dc       __real@4@3ff8a3d70a0000000000 004517dc     drawstuff:drawstuff.obj
 0002:000017e0       __real@4@c006b400000000000000 004517e0     drawstuff:drawstuff.obj
 0002:000017e4       __real@4@4007b400000000000000 004517e4     drawstuff:drawstuff.obj
 0002:000017e8       __real@4@4006b400000000000000 004517e8     drawstuff:drawstuff.obj
 0002:000017ec       ??_C@_09LBFD@?1wood?4ppm?$AA@ 004517ec     drawstuff:drawstuff.obj
 0002:000017f8       ??_C@_0M@HPKP@?1ground?4ppm?$AA@ 004517f8     drawstuff:drawstuff.obj
 0002:00001804       ??_C@_08DPDJ@?1sky?4ppm?$AA@ 00451804     drawstuff:drawstuff.obj
 0002:00001810       ??_C@_0N@OMAF@?4?4?2textures?2?$AA@ 00451810     drawstuff:drawstuff.obj
 0002:00001820       __real@4@3ffba3d70a8f5c290000 00451820     drawstuff:drawstuff.obj
 0002:00001824       ??_C@_0P@HAGC@internal?5error?$AA@ 00451824     drawstuff:drawstuff.obj
 0002:00001834       __real@4@3ffccccccd0000000000 00451834     drawstuff:drawstuff.obj
 0002:00001838       __real@4@3ffeb333330000000000 00451838     drawstuff:drawstuff.obj
 0002:0000183c       __real@4@3ffd99999a0000000000 0045183c     drawstuff:drawstuff.obj
 0002:00001840       __real@4@4005c800000000000000 00451840     drawstuff:drawstuff.obj
 0002:00001844       ??_C@_0CM@HKKE@bad?5version?5number?5in?5dsFunction@ 00451844     drawstuff:drawstuff.obj
 0002:00001870       ??_C@_06CLAI@?9pause?$AA@  00451870     drawstuff:drawstuff.obj
 0002:00001878       ??_C@_0L@KDIM@?9noshadows?$AA@ 00451878     drawstuff:drawstuff.obj
 0002:00001884       ??_C@_09GFJJ@?9noshadow?$AA@ 00451884     drawstuff:drawstuff.obj
 0002:00001890       ??_C@_06KPJH@?9notex?$AA@  00451890     drawstuff:drawstuff.obj
 0002:00001898       ??_C@_0CJ@ICAL@dsSimulationLoop?$CI?$CJ?5called?5more?5t@ 00451898     drawstuff:drawstuff.obj
 0002:000018c4       ??_C@_0DC@OMDI@dsSetViewpoint?$CI?$CJ?5called?5before?5s@ 004518c4     drawstuff:drawstuff.obj
 0002:000018f8       ??_C@_0DC@GMDL@dsGetViewpoint?$CI?$CJ?5called?5before?5s@ 004518f8     drawstuff:drawstuff.obj
 0002:0000192c       ??_C@_0DA@LHAL@drawing?5function?5called?5outside?5@ 0045192c     drawstuff:drawstuff.obj
 0002:0000195c       __real@4@3fff8000000000000000 0045195c     drawstuff:drawstuff.obj
 0002:00001960       __real@4@3ffd8483ee0000000000 00451960     drawstuff:drawstuff.obj
 0002:00001964       __real@4@3ffef746ea0000000000 00451964     drawstuff:drawstuff.obj
 0002:00001968       __real@4@3ffdcccccd0000000000 00451968     drawstuff:drawstuff.obj
 0002:00001970       __real@8@40008a3d708000000000 00451970     drawstuff:drawstuff.obj
 0002:00001978       __real@8@3fff947ae10000000000 00451978     drawstuff:drawstuff.obj
 0002:00001980       __real@4@3ffec000000000000000 00451980     drawstuff:drawstuff.obj
 0002:00001988       __real@8@3ffd860a920000000000 00451988     drawstuff:drawstuff.obj
 0002:00001990       __real@4@4001c90fdb0000000000 00451990     drawstuff:drawstuff.obj
 0002:00001994       ??_C@_05CKBG@Error?$AA@    00451994     drawstuff:windows.obj
 0002:0000199c       ??_C@_0P@LGPO@INTERNAL?5ERROR?$AA@ 0045199c     drawstuff:windows.obj
 0002:000019ac       ??_C@_0CE@EDLI@Could?5not?5kill?5rendering?5thread?5@ 004519ac     drawstuff:windows.obj
 0002:000019d0       ??_C@_0CE@HIEH@Could?5not?5kill?5rendering?5thread?5@ 004519d0     drawstuff:windows.obj
 0002:000019f4       ??_C@_0CC@FOMP@Could?5not?5create?5rendering?5threa@ 004519f4     drawstuff:windows.obj
 0002:00001a18       ??_C@_0CJ@ENNF@could?5not?5set?5DC?5pixel?5format?5fo@ 00451a18     drawstuff:windows.obj
 0002:00001a44       ??_C@_0CK@JJOB@could?5not?5find?5a?5good?5OpenGL?5pix@ 00451a44     drawstuff:windows.obj
 0002:00001a70       ??_C@_0BI@GLDE@could?5not?5get?5window?5DC?$AA@ 00451a70     drawstuff:windows.obj
 0002:00001a88       ??_C@_0BN@DKOI@could?5not?5create?5main?5window?$AA@ 00451a88     drawstuff:windows.obj
 0002:00001aa8       ??_C@_0M@CGLH@SimAppClass?$AA@ 00451aa8     drawstuff:windows.obj
 0002:00001ab4       ??_C@_0CF@MPCB@Simulation?5test?5environment?5v?$CFd?4@ 00451ab4     drawstuff:windows.obj
 0002:00001adc       ??_C@_07JCGI@Warning?$AA@  00451adc     drawstuff:windows.obj
 0002:00001ae4       ??_C@_0CD@LCKP@max?5texture?5size?5too?5small?5?$CI?$CFdx?$CF@ 00451ae4     drawstuff:windows.obj
 0002:00001b08       ??_C@_0CG@PIDD@could?5not?5make?5OpenGL?5context?5cu@ 00451b08     drawstuff:windows.obj
 0002:00001b30       ??_C@_0CA@NCDN@could?5not?5create?5OpenGL?5context?$AA@ 00451b30     drawstuff:windows.obj
 0002:00001b50       ??_C@_0BM@LIFF@could?5not?5load?5accelerators?$AA@ 00451b50     drawstuff:windows.obj
 0002:00001b6c       ??_C@_0CA@NCKE@could?5not?5register?5window?5class?$AA@ 00451b6c     drawstuff:windows.obj
 0002:00001b8c       ??_C@_0BD@CDBO@DrawStuff?5Messages?$AA@ 00451b8c     drawstuff:windows.obj
 0002:00001ba0       ??_C@_0BG@EINA@could?5not?5open?5stderr?$AA@ 00451ba0     drawstuff:windows.obj
 0002:00001bb8       ??_C@_0BG@OCGP@could?5not?5open?5stdout?$AA@ 00451bb8     drawstuff:windows.obj
 0002:00001bd0       ??_C@_07GLCC@CONOUT$?$AA@  00451bd0     drawstuff:windows.obj
 0002:00001bd8       ??_C@_02IAAH@wt?$AA@       00451bd8     drawstuff:windows.obj
 0002:00001bdc       ??_C@_0BF@BGGB@could?5not?5open?5stdin?$AA@ 00451bdc     drawstuff:windows.obj
 0002:00001bf4       ??_C@_06MICP@CONIN$?$AA@   00451bf4     drawstuff:windows.obj
 0002:00001bfc       ??_C@_02MMAH@rt?$AA@       00451bfc     drawstuff:windows.obj
 0002:00001c00       ??_C@_0BG@CGDO@AllocConsole?$CI?$CJ?5failed?$AA@ 00451c00     drawstuff:windows.obj
 0002:00001c18       ??_C@_0CF@BJIM@?$CCSave?5Settings?$CC?5not?5yet?5implemen@ 00451c18     drawstuff:windows.obj
 0002:00001c40       ??_C@_0CJ@OMLO@Performance?5monitor?5not?5yet?5impl@ 00451c40     drawstuff:windows.obj
 0002:00001c6c       ??_C@_0BA@KMHA@DrawStuff?3?$CFd?1?$CFd?$AA@ 00451c6c     drawstuff:windows.obj
 0002:00001c80       ??_7istream@@6B@           00451c80     libcid:istream.obj
 0002:00001c84       ??_8istream@@7B@           00451c84     libcid:istream.obj
 0002:00001c90       ??_7istream_withassign@@6B@ 00451c90     libcid:istream.obj
 0002:00001c94       ??_8istream_withassign@@7B@ 00451c94     libcid:istream.obj
 0002:00001ca0       ??_7ostream@@6B@           00451ca0     libcid:ostream.obj
 0002:00001ca4       ??_8ostream@@7B@           00451ca4     libcid:ostream.obj
 0002:00001cb0       ??_7ostream_withassign@@6B@ 00451cb0     libcid:ostream.obj
 0002:00001cb4       ??_8ostream_withassign@@7B@ 00451cb4     libcid:ostream.obj
 0002:00001cbc       ??_C@_0L@MNFE@?$CF?$CF?$CFs?4?$CF?40ug?$AA@ 00451cbc     libcid:ostrdbl.obj
 0002:00001ccc       ??_7ifstream@@6B@          00451ccc     libcid:ifstream.obj
 0002:00001cd0       ??_C@_0N@GFBA@ifstream?4cpp?$AA@ 00451cd0     libcid:ifstream.obj
 0002:00001ce0       ??_8ifstream@@7B@          00451ce0     libcid:ifstream.obj
 0002:00001cec       ??_7ofstream@@6B@          00451cec     libcid:ofstream.obj
 0002:00001cf0       ??_C@_0N@JGP@ofstream?4cpp?$AA@ 00451cf0     libcid:ofstream.obj
 0002:00001d00       ??_8ofstream@@7B@          00451d00     libcid:ofstream.obj
 0002:00001d08       ?openprot@filebuf@@2HB     00451d08     libcid:filebuf.obj
 0002:00001d0c       ?sh_none@filebuf@@2HB      00451d0c     libcid:filebuf.obj
 0002:00001d10       ?sh_read@filebuf@@2HB      00451d10     libcid:filebuf.obj
 0002:00001d14       ?sh_write@filebuf@@2HB     00451d14     libcid:filebuf.obj
 0002:00001d18       ?binary@filebuf@@2HB       00451d18     libcid:filebuf.obj
 0002:00001d1c       ?text@filebuf@@2HB         00451d1c     libcid:filebuf.obj
 0002:00001d24       ??_7filebuf@@6B@           00451d24     libcid:filebuf.obj
 0002:00001d50       ??_C@_02A@?$AA?$AA?$AA@    00451d50     libcid:ostrint.obj
 0002:00001d54       ??_C@_02MECO@?$CFd?$AA@    00451d54     libcid:ostrint.obj
 0002:00001d58       ?basefield@ios@@2JB        00451d58     libcid:_ios.obj
 0002:00001d5c       ?adjustfield@ios@@2JB      00451d5c     libcid:_ios.obj
 0002:00001d60       ?floatfield@ios@@2JB       00451d60     libcid:_ios.obj
 0002:00001d68       ??_7ios@@6B@               00451d68     libcid:_ios.obj
 0002:00001d6c       ??_C@_08EOMJ@_ios?4cpp?$AA@ 00451d6c     libcid:_ios.obj
 0002:00001d78       ??_C@_0N@INO@filebuf1?4cpp?$AA@ 00451d78     libcid:filebuf1.obj
 0002:00001d8c       ??_7streambuf@@6B@         00451d8c     libcid:streamb.obj
 0002:00001db8       ??_C@_0M@DAMI@streamb?4cpp?$AA@ 00451db8     libcid:streamb.obj
 0002:00001dc4       ??_C@_0L@OFGA@dbgdel?4cpp?$AA@ 00451dc4     LIBCD:dbgdel.obj
 0002:00001dd0       ??_C@_0CH@PHOC@_BLOCK_TYPE_IS_VALID?$CIpHead?9?$DOnBlo@ 00451dd0     LIBCD:dbgdel.obj
 0002:00001df8       ??_C@_0O@FHMD@i386?2chkesp?4c?$AA@ 00451df8     LIBCD:chkesp.obj
 0002:00001e08       ??_C@_0NM@ELEE@The?5value?5of?5ESP?5was?5not?5properl@ 00451e08     LIBCD:chkesp.obj
 0002:00001ee4       ??_C@_09DNOI@_filbuf?4c?$AA@ 00451ee4     LIBCD:_filbuf.obj
 0002:00001ef0       ??_C@_0M@KJPK@str?5?$CB?$DN?5NULL?$AA@ 00451ef0     LIBCD:_filbuf.obj
 0002:00001efc       ??_C@_07HPAH@_file?4c?$AA@ 00451efc     LIBCD:_file.obj
 0002:00001f04       ??_C@_08GNFC@printf?4c?$AA@ 00451f04     LIBCD:printf.obj
 0002:00001f10       ??_C@_0P@LNLA@format?5?$CB?$DN?5NULL?$AA@ 00451f10     LIBCD:printf.obj
 0002:00001f20       ??_C@_09NEAG@sprintf?4c?$AA@ 00451f20     LIBCD:sprintf.obj
 0002:00001f2c       ??_C@_0P@OOIN@string?5?$CB?$DN?5NULL?$AA@ 00451f2c     LIBCD:sprintf.obj
 0002:00001f3c       ??_C@_07OOMJ@cmd?4exe?$AA@ 00451f3c     LIBCD:system.obj
 0002:00001f44       ??_C@_0M@IPJP@command?4com?$AA@ 00451f44     LIBCD:system.obj
 0002:00001f50       ??_C@_02JMK@?1c?$AA@       00451f50     LIBCD:system.obj
 0002:00001f54       ??_C@_08DLLJ@system?4c?$AA@ 00451f54     LIBCD:system.obj
 0002:00001f60       ??_C@_0BF@GFJL@?$CKcommand?5?$CB?$DN?5_T?$CI?8?20?8?$CJ?$AA@ 00451f60     LIBCD:system.obj
 0002:00001f78       ??_C@_07KFDO@COMSPEC?$AA@  00451f78     LIBCD:system.obj
 0002:00001f8c       ??_C@_06DPMO@Client?$AA@   00451f8c     LIBCD:dbgheap.obj
 0002:00001f94       ??_C@_06BAFM@Ignore?$AA@   00451f94     LIBCD:dbgheap.obj
 0002:00001f9c       ??_C@_03DICE@CRT?$AA@      00451f9c     LIBCD:dbgheap.obj
 0002:00001fa0       ??_C@_06BILL@Normal?$AA@   00451fa0     LIBCD:dbgheap.obj
 0002:00001fa8       ??_C@_04NEN@Free?$AA@      00451fa8     LIBCD:dbgheap.obj
 0002:00001fb0       ??_C@_0DC@CGID@Error?3?5memory?5allocation?3?5bad?5me@ 00451fb0     LIBCD:dbgheap.obj
 0002:00001fe4       ??_C@_0CE@FMIA@Invalid?5allocation?5size?3?5?$CFu?5byte@ 00451fe4     LIBCD:dbgheap.obj
 0002:00002008       ??_C@_02DILL@?$CFs?$AA@    00452008     LIBCD:dbgheap.obj
 0002:0000200c       ??_C@_0CB@CPBI@Client?5hook?5allocation?5failure?4?6@ 0045200c     LIBCD:dbgheap.obj
 0002:00002030       ??_C@_0DF@DKHF@Client?5hook?5allocation?5failure?5a@ 00452030     LIBCD:dbgheap.obj
 0002:00002068       ??_C@_09IMJC@dbgheap?4c?$AA@ 00452068     LIBCD:dbgheap.obj
 0002:00002074       ??_C@_0BC@EPKL@_CrtCheckMemory?$CI?$CJ?$AA@ 00452074     LIBCD:dbgheap.obj
 0002:00002088       ??_C@_0BK@JDHA@_pFirstBlock?5?$DN?$DN?5pOldBlock?$AA@ 00452088     LIBCD:dbgheap.obj
 0002:000020a4       ??_C@_0BJ@NMEF@_pLastBlock?5?$DN?$DN?5pOldBlock?$AA@ 004520a4     LIBCD:dbgheap.obj
 0002:000020c0       ??_C@_0DC@BOCN@fRealloc?5?$HM?$HM?5?$CI?$CBfRealloc?5?$CG?$CG?5pNewBl@ 004520c0     LIBCD:dbgheap.obj
 0002:000020f4       ??_C@_0DK@DKOM@_BLOCK_TYPE?$CIpOldBlock?9?$DOnBlockUse@ 004520f4     LIBCD:dbgheap.obj
 0002:00002130       ??_C@_0EF@EDKM@pOldBlock?9?$DOnLine?5?$DN?$DN?5IGNORE_LINE?5@ 00452130     LIBCD:dbgheap.obj
 0002:00002178       ??_C@_0CC@GPMO@_CrtIsValidHeapPointer?$CIpUserData@ 00452178     LIBCD:dbgheap.obj
 0002:0000219c       ??_C@_0CN@FHGE@Allocation?5too?5large?5or?5negative@ 0045219c     LIBCD:dbgheap.obj
 0002:000021cc       ??_C@_0CE@EAMN@Client?5hook?5re?9allocation?5failur@ 004521cc     LIBCD:dbgheap.obj
 0002:000021f0       ??_C@_0DI@KKMM@Client?5hook?5re?9allocation?5failur@ 004521f0     LIBCD:dbgheap.obj
 0002:00002228       ??_C@_0BG@JCEC@_pFirstBlock?5?$DN?$DN?5pHead?$AA@ 00452228     LIBCD:dbgheap.obj
 0002:00002240       ??_C@_0BF@NLNN@_pLastBlock?5?$DN?$DN?5pHead?$AA@ 00452240     LIBCD:dbgheap.obj
 0002:00002258       ??_C@_0BO@PLHH@pHead?9?$DOnBlockUse?5?$DN?$DN?5nBlockUse?$AA@ 00452258     LIBCD:dbgheap.obj
 0002:00002278       ??_C@_0DN@KKIO@pHead?9?$DOnLine?5?$DN?$DN?5IGNORE_LINE?5?$CG?$CG?5p@ 00452278     LIBCD:dbgheap.obj
 0002:000022b8       ??_C@_0CK@OJNB@DAMAGE?3?5after?5?$CFhs?5block?5?$CI?$CD?$CFd?$CJ?5at@ 004522b8     LIBCD:dbgheap.obj
 0002:000022e4       ??_C@_0CL@IJIL@DAMAGE?3?5before?5?$CFhs?5block?5?$CI?$CD?$CFd?$CJ?5a@ 004522e4     LIBCD:dbgheap.obj
 0002:00002310       ??_C@_0BL@MBNA@Client?5hook?5free?5failure?4?6?$AA@ 00452310     LIBCD:dbgheap.obj
 0002:0000232c       ??_C@_0DK@EKKL@memory?5check?5error?5at?50x?$CF08X?5?$DN?50@ 0045232c     LIBCD:dbgheap.obj
 0002:00002368       ??_C@_0CJ@GCII@?$CFhs?5located?5at?50x?$CF08X?5is?5?$CFu?5byte@ 00452368     LIBCD:dbgheap.obj
 0002:00002394       ??_C@_0CA@EJPI@?$CFhs?5allocated?5at?5file?5?$CFhs?$CI?$CFd?$CJ?4?6?$AA@ 00452394     LIBCD:dbgheap.obj
 0002:000023b4       ??_C@_0CJ@LHHG@DAMAGE?3?5on?5top?5of?5Free?5block?5at?5@ 004523b4     LIBCD:dbgheap.obj
 0002:000023e0       ??_C@_07GJHM@DAMAGED?$AA@  004523e0     LIBCD:dbgheap.obj
 0002:000023e8       ??_C@_0CL@ODIE@_heapchk?5fails?5with?5unknown?5retu@ 004523e8     LIBCD:dbgheap.obj
 0002:00002414       ??_C@_0CC@EHNC@_heapchk?5fails?5with?5_HEAPBADPTR?4@ 00452414     LIBCD:dbgheap.obj
 0002:00002438       ??_C@_0CC@JNDP@_heapchk?5fails?5with?5_HEAPBADEND?4@ 00452438     LIBCD:dbgheap.obj
 0002:0000245c       ??_C@_0CD@DNMG@_heapchk?5fails?5with?5_HEAPBADNODE@ 0045245c     LIBCD:dbgheap.obj
 0002:00002480       ??_C@_0CE@JMCB@_heapchk?5fails?5with?5_HEAPBADBEGI@ 00452480     LIBCD:dbgheap.obj
 0002:000024a4       ??_C@_0CD@MEMI@Bad?5memory?5block?5found?5at?50x?$CF08X@ 004524a4     LIBCD:dbgheap.obj
 0002:000024c8       ??_C@_0CI@GMAO@_CrtMemCheckPoint?3?5NULL?5state?5po@ 004524c8     LIBCD:dbgheap.obj
 0002:000024f0       ??_C@_0CI@MNAE@_CrtMemDifference?3?5NULL?5state?5po@ 004524f0     LIBCD:dbgheap.obj
 0002:00002518       ??_C@_0BH@PKIJ@Object?5dump?5complete?4?6?$AA@ 00452518     LIBCD:dbgheap.obj
 0002:00002530       ??_C@_0DB@DBPF@crt?5block?5at?50x?$CF08X?0?5subtype?5?$CFx?0@ 00452530     LIBCD:dbgheap.obj
 0002:00002564       ??_C@_0CI@JLM@normal?5block?5at?50x?$CF08X?0?5?$CFu?5bytes@ 00452564     LIBCD:dbgheap.obj
 0002:0000258c       ??_C@_0DE@PFEA@client?5block?5at?50x?$CF08X?0?5subtype?5@ 0045258c     LIBCD:dbgheap.obj
 0002:000025c0       ??_C@_06MBCE@?$HL?$CFld?$HN?5?$AA@ 004525c0     LIBCD:dbgheap.obj
 0002:000025c8       ??_C@_0L@BLDJ@?$CFhs?$CI?$CFd?$CJ?5?3?5?$AA@ 004525c8     LIBCD:dbgheap.obj
 0002:000025d4       ??_C@_0BE@FEMA@?$CDFile?5Error?$CD?$CI?$CFd?$CJ?5?3?5?$AA@ 004525d4     LIBCD:dbgheap.obj
 0002:000025e8       ??_C@_0BE@FPPM@Dumping?5objects?5?9?$DO?6?$AA@ 004525e8     LIBCD:dbgheap.obj
 0002:000025fc       ??_C@_0BA@POLM@?5Data?3?5?$DM?$CFs?$DO?5?$CFs?6?$AA@ 004525fc     LIBCD:dbgheap.obj
 0002:0000260c       ??_C@_05JLAO@?$CF?42X?5?$AA@ 0045260c     LIBCD:dbgheap.obj
 0002:00002614       ??_C@_0BI@KONA@Detected?5memory?5leaks?$CB?6?$AA@ 00452614     LIBCD:dbgheap.obj
 0002:0000262c       ??_C@_0BP@LCCN@Total?5allocations?3?5?$CFld?5bytes?4?6?$AA@ 0045262c     LIBCD:dbgheap.obj
 0002:0000264c       ??_C@_0CB@COID@Largest?5number?5used?3?5?$CFld?5bytes?4?6@ 0045264c     LIBCD:dbgheap.obj
 0002:00002670       ??_C@_0BO@MEJD@?$CFld?5bytes?5in?5?$CFld?5?$CFhs?5Blocks?4?6?$AA@ 00452670     LIBCD:dbgheap.obj
 0002:00002690       ??_C@_0L@HE@vsprintf?4c?$AA@ 00452690     LIBCD:vsnprint.obj
 0002:0000269c       ??_C@_0L@OPJO@vfprintf?4c?$AA@ 0045269c     LIBCD:vfprintf.obj
 0002:000026a8       ??_C@_09DLOM@fprintf?4c?$AA@ 004526a8     LIBCD:fprintf.obj
 0002:000026b4       ??_C@_08PHBD@fclose?4c?$AA@ 004526b4     LIBCD:fclose.obj
 0002:000026c0       ??_C@_08JKP@ungetc?4c?$AA@ 004526c0     LIBCD:ungetc.obj
 0002:000026cc       ??_C@_07JJAI@fgetc?4c?$AA@ 004526cc     LIBCD:fgetc.obj
 0002:000026d4       ??_C@_0P@FHEA@stream?5?$CB?$DN?5NULL?$AA@ 004526d4     LIBCD:fgetc.obj
 0002:000026e4       ??_C@_0BC@IPFL@?$CKmode?5?$CB?$DN?5_T?$CI?8?20?8?$CJ?$AA@ 004526e4     LIBCD:fopen.obj
 0002:000026f8       ??_C@_0N@BKPP@mode?5?$CB?$DN?5NULL?$AA@ 004526f8     LIBCD:fopen.obj
 0002:00002708       ??_C@_0BC@GOED@?$CKfile?5?$CB?$DN?5_T?$CI?8?20?8?$CJ?$AA@ 00452708     LIBCD:fopen.obj
 0002:0000271c       ??_C@_07OMGG@fopen?4c?$AA@ 0045271c     LIBCD:fopen.obj
 0002:00002724       ??_C@_0N@MCKG@file?5?$CB?$DN?5NULL?$AA@ 00452724     LIBCD:fopen.obj
 0002:00002734       ??_C@_09BPGO@vprintf?4c?$AA@ 00452734     LIBCD:vprintf.obj
 0002:00002740       ??_C@_0BG@GALO@?$CKfilename?5?$CB?$DN?5_T?$CI?8?20?8?$CJ?$AA@ 00452740     LIBCD:freopen.obj
 0002:00002758       ??_C@_09NFKF@freopen?4c?$AA@ 00452758     LIBCD:freopen.obj
 0002:00002764       ??_C@_0BB@COCE@filename?5?$CB?$DN?5NULL?$AA@ 00452764     LIBCD:freopen.obj
 0002:0000277c       ??_7type_info@@6B@         0045277c     LIBCD:typinfo.obj
 0002:00002780       ??_C@_08KFDJ@ioinit?4c?$AA@ 00452780     LIBCD:ioinit.obj
 0002:0000278c       ??_C@_0BB@BLL@Assertion?5Failed?$AA@ 0045278c     LIBCD:dbgrpt.obj
 0002:000027a0       ??_C@_0M@ODEP@?$CFs?$CI?$CFd?$CJ?5?3?5?$CFs?$AA@ 004527a0     LIBCD:dbgrpt.obj
 0002:000027ac       ??_C@_01FEHD@?$AN?$AA@     004527ac     LIBCD:dbgrpt.obj
 0002:000027b0       ??_C@_0BC@OIMC@Assertion?5failed?$CB?$AA@ 004527b0     LIBCD:dbgrpt.obj
 0002:000027c4       ??_C@_0BD@BEAK@Assertion?5failed?3?5?$AA@ 004527c4     LIBCD:dbgrpt.obj
 0002:000027d8       ??_C@_0CL@LCCP@_CrtDbgReport?3?5String?5too?5long?5o@ 004527d8     LIBCD:dbgrpt.obj
 0002:00002804       ??_C@_0DC@EMDK@Second?5Chance?5Assertion?5Failed?3?5@ 00452804     LIBCD:dbgrpt.obj
 0002:00002838       ??_C@_09NJAK@wsprintfA?$AA@ 00452838     LIBCD:dbgrpt.obj
 0002:00002844       ??_C@_0L@HKL@user32?4dll?$AA@ 00452844     LIBCD:dbgrpt.obj
 0002:00002850       ??_C@_0CD@GCMD@Microsoft?5Visual?5C?$CL?$CL?5Debug?5Libra@ 00452850     LIBCD:dbgrpt.obj
 0002:00002874       ??_C@_0FD@EBDD@Debug?5?$CFs?$CB?6?6Program?3?5?$CFs?$CFs?$CFs?$CFs?$CFs?$CFs@ 00452874     LIBCD:dbgrpt.obj
 0002:000028c8       ??_C@_09DCKN@?6Module?3?5?$AA@ 004528c8     LIBCD:dbgrpt.obj
 0002:000028d4       ??_C@_07HJII@?6File?3?5?$AA@ 004528d4     LIBCD:dbgrpt.obj
 0002:000028dc       ??_C@_07LFGN@?6Line?3?5?$AA@ 004528dc     LIBCD:dbgrpt.obj
 0002:000028e4       ??_C@_02JJJH@?6?6?$AA@     004528e4     LIBCD:dbgrpt.obj
 0002:000028e8       ??_C@_0N@NOAB@Expression?3?5?$AA@ 004528e8     LIBCD:dbgrpt.obj
 0002:000028f8       ??_C@_0HD@BHFH@?6?6For?5information?5on?5how?5your?5pr@ 004528f8     LIBCD:dbgrpt.obj
 0002:0000296c       ??_C@_03NAME@?4?4?4?$AA@   0045296c     LIBCD:dbgrpt.obj
 0002:00002970       ??_C@_0BH@NNCD@?$DMprogram?5name?5unknown?$DO?$AA@ 00452970     LIBCD:dbgrpt.obj
 0002:00002988       ??_C@_08GFHP@dbgrpt?4c?$AA@ 00452988     LIBCD:dbgrpt.obj
 0002:00002994       ??_C@_0BG@FBEA@szUserMessage?5?$CB?$DN?5NULL?$AA@ 00452994     LIBCD:dbgrpt.obj
 0002:00002a28       ??_C@_0BK@JEGK@IsProcessorFeaturePresent?$AA@ 00452a28     LIBCD:testfdiv.obj
 0002:00002a44       ??_C@_08OBID@KERNEL32?$AA@ 00452a44     LIBCD:testfdiv.obj
 0002:00002a50       ??_C@_05OFLO@e?$CL000?$AA@ 00452a50     LIBCD:cvt.obj
 0002:00002a58       ??_C@_09EMDO@_getbuf?4c?$AA@ 00452a58     LIBCD:_getbuf.obj
 0002:00002a64       ??_C@_09JNND@_sftbuf?4c?$AA@ 00452a64     LIBCD:_sftbuf.obj
 0002:00002a70       ??_C@_0BH@EOPG@flag?5?$DN?$DN?50?5?$HM?$HM?5flag?5?$DN?$DN?51?$AA@ 00452a70     LIBCD:_sftbuf.obj
 0002:00002a88       ___lookuptable             00452a88     LIBCD:output.obj
 0002:00002ae4       ??_C@_1O@POHA@?$AA?$CI?$AAn?$AAu?$AAl?$AAl?$AA?$CJ?$AA?$AA@ 00452ae4     LIBCD:output.obj
 0002:00002af4       ??_C@_06ONKE@?$CInull?$CJ?$AA@ 00452af4     LIBCD:output.obj
 0002:00002afc       ??_C@_08MIHI@output?4c?$AA@ 00452afc     LIBCD:output.obj
 0002:00002b08       ??_C@_0P@PIHB@ch?5?$CB?$DN?5_T?$CI?8?20?8?$CJ?$AA@ 00452b08     LIBCD:output.obj
 0002:00002b28       __DEFAULT_CW_in_mem        00452b28     LIBCD:common.obj
 0002:00002b2a       __pi_by_2_to_61            00452b2a     LIBCD:common.obj
 0002:00002b64       ??_C@_03GAFO@_yn?$AA@      00452b64     LIBCD:fpexcept.obj
 0002:00002b68       ??_C@_03GNLD@_y1?$AA@      00452b68     LIBCD:fpexcept.obj
 0002:00002b6c       ??_C@_03MHCE@_y0?$AA@      00452b6c     LIBCD:fpexcept.obj
 0002:00002b70       ??_C@_05PAK@frexp?$AA@     00452b70     LIBCD:fpexcept.obj
 0002:00002b78       ??_C@_04JKCH@fmod?$AA@     00452b78     LIBCD:fpexcept.obj
 0002:00002b80       ??_C@_06GGHF@_hypot?$AA@   00452b80     LIBCD:fpexcept.obj
 0002:00002b88       ??_C@_05JNMC@_cabs?$AA@    00452b88     LIBCD:fpexcept.obj
 0002:00002b90       ??_C@_05MEKH@ldexp?$AA@    00452b90     LIBCD:fpexcept.obj
 0002:00002b98       ??_C@_04KAOJ@modf?$AA@     00452b98     LIBCD:fpexcept.obj
 0002:00002ba0       ??_C@_04EHAJ@fabs?$AA@     00452ba0     LIBCD:fpexcept.obj
 0002:00002ba8       ??_C@_05MFBN@floor?$AA@    00452ba8     LIBCD:fpexcept.obj
 0002:00002bb0       ??_C@_04JJMP@ceil?$AA@     00452bb0     LIBCD:fpexcept.obj
 0002:00002bb8       ??_C@_03JLPI@tan?$AA@      00452bb8     LIBCD:fpexcept.obj
 0002:00002bbc       ??_C@_03DLFL@cos?$AA@      00452bbc     LIBCD:fpexcept.obj
 0002:00002bc0       ??_C@_03JAMN@sin?$AA@      00452bc0     LIBCD:fpexcept.obj
 0002:00002bc4       ??_C@_04LMBE@sqrt?$AA@     00452bc4     LIBCD:fpexcept.obj
 0002:00002bcc       ??_C@_05BFPO@atan2?$AA@    00452bcc     LIBCD:fpexcept.obj
 0002:00002bd4       ??_C@_04EAGN@atan?$AA@     00452bd4     LIBCD:fpexcept.obj
 0002:00002bdc       ??_C@_04OAMO@acos?$AA@     00452bdc     LIBCD:fpexcept.obj
 0002:00002be4       ??_C@_04ELFI@asin?$AA@     00452be4     LIBCD:fpexcept.obj
 0002:00002bec       ??_C@_04LFAD@tanh?$AA@     00452bec     LIBCD:fpexcept.obj
 0002:00002bf4       ??_C@_04PFKD@cosh?$AA@     00452bf4     LIBCD:fpexcept.obj
 0002:00002bfc       ??_C@_04NPAI@sinh?$AA@     00452bfc     LIBCD:fpexcept.obj
 0002:00002c04       ??_C@_05IJHH@log10?$AA@    00452c04     LIBCD:fpexcept.obj
 0002:00002c0c       ??_C@_03BGKD@log?$AA@      00452c0c     LIBCD:fpexcept.obj
 0002:00002c10       ??_C@_03EGFG@pow?$AA@      00452c10     LIBCD:fpexcept.obj
 0002:00002c14       ??_C@_03CDGJ@exp?$AA@      00452c14     LIBCD:fpexcept.obj
 0002:00002c18       ??_C@_0DP@IHIN@?$CI?$CCinconsistent?5IOB?5fields?$CC?0?5stre@ 00452c18     LIBCD:_flsbuf.obj
 0002:00002c58       ??_C@_09LGEI@_flsbuf?4c?$AA@ 00452c58     LIBCD:_flsbuf.obj
 0002:00002c64       ??_C@_01PCFE@?2?$AA@       00452c64     LIBCD:spawnvpe.obj
 0002:00002c68       ??_C@_04LNMG@PATH?$AA@     00452c68     LIBCD:spawnvpe.obj
 0002:00002c70       ??_C@_0BD@MODE@?$CK?$CKargv?5?$CB?$DN?5_T?$CI?8?20?8?$CJ?$AA@ 00452c70     LIBCD:spawnvpe.obj
 0002:00002c84       ??_C@_0O@IICG@?$CKargv?5?$CB?$DN?5NULL?$AA@ 00452c84     LIBCD:spawnvpe.obj
 0002:00002c94       ??_C@_0N@IMCP@argv?5?$CB?$DN?5NULL?$AA@ 00452c94     LIBCD:spawnvpe.obj
 0002:00002ca4       ??_C@_0L@CAAP@spawnvpe?4c?$AA@ 00452ca4     LIBCD:spawnvpe.obj
 0002:00002cb0       ??_C@_04GGNP@?4com?$AA@    00452cb0     LIBCD:spawnve.obj
 0002:00002cb8       ??_C@_04NFOM@?4exe?$AA@    00452cb8     LIBCD:spawnve.obj
 0002:00002cc0       ??_C@_04KBDN@?4bat?$AA@    00452cc0     LIBCD:spawnve.obj
 0002:00002cc8       ??_C@_04LFKF@?4cmd?$AA@    00452cc8     LIBCD:spawnve.obj
 0002:00002cd0       ??_C@_02OFKN@?4?2?$AA@     00452cd0     LIBCD:spawnve.obj
 0002:00002cd4       ??_C@_09HILO@spawnve?4c?$AA@ 00452cd4     LIBCD:spawnve.obj
 0002:00002d10       ??_C@_09IGKD@stdenvp?4c?$AA@ 00452d10     LIBCD:stdenvp.obj
 0002:00002d1c       ??_C@_09MPMN@stdargv?4c?$AA@ 00452d1c     LIBCD:stdargv.obj
 0002:00002d28       ??_C@_07BNNE@a_env?4c?$AA@ 00452d28     LIBCD:a_env.obj
 0002:00002d30       ??_C@_0P@GGKG@runtime?5error?5?$AA@ 00452d30     LIBCD:crt0msg.obj
 0002:00002d40       ??_C@_02PIMC@?$AN?6?$AA@   00452d40     LIBCD:crt0msg.obj
 0002:00002d44       ??_C@_0O@DELO@TLOSS?5error?$AN?6?$AA@ 00452d44     LIBCD:crt0msg.obj
 0002:00002d54       ??_C@_0N@OMLL@SING?5error?$AN?6?$AA@ 00452d54     LIBCD:crt0msg.obj
 0002:00002d64       ??_C@_0P@OJAK@DOMAIN?5error?$AN?6?$AA@ 00452d64     LIBCD:crt0msg.obj
 0002:00002d74       ??_C@_0CF@EANP@R6028?$AN?6?9?5unable?5to?5initialize?5he@ 00452d74     LIBCD:crt0msg.obj
 0002:00002d9c       ??_C@_0DF@ECGN@R6027?$AN?6?9?5not?5enough?5space?5for?5lo@ 00452d9c     LIBCD:crt0msg.obj
 0002:00002dd4       ??_C@_0DF@FKAC@R6026?$AN?6?9?5not?5enough?5space?5for?5st@ 00452dd4     LIBCD:crt0msg.obj
 0002:00002e0c       ??_C@_0CG@DPMN@R6025?$AN?6?9?5pure?5virtual?5function?5c@ 00452e0c     LIBCD:crt0msg.obj
 0002:00002e34       ??_C@_0DF@CKIP@R6024?$AN?6?9?5not?5enough?5space?5for?5_o@ 00452e34     LIBCD:crt0msg.obj
 0002:00002e6c       ??_C@_0CJ@GGOE@R6019?$AN?6?9?5unable?5to?5open?5console?5@ 00452e6c     LIBCD:crt0msg.obj
 0002:00002e98       ??_C@_0CB@LBOB@R6018?$AN?6?9?5unexpected?5heap?5error?$AN?6@ 00452e98     LIBCD:crt0msg.obj
 0002:00002ebc       ??_C@_0CN@FPEG@R6017?$AN?6?9?5unexpected?5multithread?5@ 00452ebc     LIBCD:crt0msg.obj
 0002:00002eec       ??_C@_0CM@OBIC@R6016?$AN?6?9?5not?5enough?5space?5for?5th@ 00452eec     LIBCD:crt0msg.obj
 0002:00002f18       ??_C@_0CB@HPAL@?$AN?6abnormal?5program?5termination?$AN?6@ 00452f18     LIBCD:crt0msg.obj
 0002:00002f3c       ??_C@_0CM@JOOB@R6009?$AN?6?9?5not?5enough?5space?5for?5en@ 00452f3c     LIBCD:crt0msg.obj
 0002:00002f68       ??_C@_0CK@OIBL@R6008?$AN?6?9?5not?5enough?5space?5for?5ar@ 00452f68     LIBCD:crt0msg.obj
 0002:00002f94       ??_C@_0CF@LKPB@R6002?$AN?6?9?5floating?5point?5not?5load@ 00452f94     LIBCD:crt0msg.obj
 0002:00002fbc       ??_C@_0CF@JPDF@Microsoft?5Visual?5C?$CL?$CL?5Runtime?5Lib@ 00452fbc     LIBCD:crt0msg.obj
 0002:00002fe4       ??_C@_0BK@DEOK@Runtime?5Error?$CB?6?6Program?3?5?$AA@ 00452fe4     LIBCD:crt0msg.obj
 0002:00003000       ??_C@_0L@JIE@_freebuf?4c?$AA@ 00453000     LIBCD:_freebuf.obj
 0002:0000300c       ??_C@_07INLA@_open?4c?$AA@ 0045300c     LIBCD:_open.obj
 0002:00003014       ??_C@_08HJEP@stream?4c?$AA@ 00453014     LIBCD:stream.obj
 0002:00003020       ??_C@_01A@?$AA?$AA@        00453020     LIBCD:a_map.obj
 0002:00003024       ??_C@_13A@?$AA?$AA?$AA?$AA@ 00453024     LIBCD:a_map.obj
 0002:00003040       ??_C@_09LNLM@osfinfo?4c?$AA@ 00453040     LIBCD:osfinfo.obj
 0002:0000304c       ??_C@_08EIOK@chsize?4c?$AA@ 0045304c     LIBCD:chsize.obj
 0002:00003058       ??_C@_09NPGF@size?5?$DO?$DN?50?$AA@ 00453058     LIBCD:chsize.obj
 0002:00003064       ??_C@_0BD@NJFP@GetLastActivePopup?$AA@ 00453064     LIBCD:crtmbox.obj
 0002:00003078       ??_C@_0BA@GILI@GetActiveWindow?$AA@ 00453078     LIBCD:crtmbox.obj
 0002:00003088       ??_C@_0M@PKCK@MessageBoxA?$AA@ 00453088     LIBCD:crtmbox.obj
 0002:000030a4       ??_C@_09FGIN@dospawn?4c?$AA@ 004530a4     LIBCD:dospawn.obj
 0002:000030b0       ??_C@_09MOBB@cenvarg?4c?$AA@ 004530b0     LIBCD:cenvarg.obj
 0002:000030bc       ??_C@_0L@EJNO@wtombenv?4c?$AA@ 004530bc     LIBCD:wtombenv.obj
 0002:000030c8       ??_C@_06PAPI@1?$CDQNAN?$AA@ 004530c8     LIBCD:x10fout.obj
 0002:000030d0       ??_C@_05BGNL@1?$CDINF?$AA@ 004530d0     LIBCD:x10fout.obj
 0002:000030d8       ??_C@_05EDPF@1?$CDIND?$AA@ 004530d8     LIBCD:x10fout.obj
 0002:000030e0       ??_C@_06LKFM@1?$CDSNAN?$AA@ 004530e0     LIBCD:x10fout.obj
 0002:000030e8       ??_C@_07FOIK@a_cmp?4c?$AA@ 004530e8     LIBCD:a_cmp.obj
 0002:000030f0       ??_C@_0DN@PPKB@cchCount1?$DN?$DN0?5?$CG?$CG?5cchCount2?$DN?$DN1?5?$HM?$HM?5@ 004530f0     LIBCD:a_cmp.obj
 0002:00003148       ??_C@_08FEIK@setenv?4c?$AA@ 00453148     LIBCD:setenv.obj
 0002:00003158       ??_R1A@A@3BA@ios@@8        00453158     libcid:istream.obj
 0002:00003170       ??_R1A@?0A@A@istream@@8    00453170     libcid:istream.obj
 0002:00003188       ??_R2istream@@8            00453188     libcid:istream.obj
 0002:00003198       ??_R3istream@@8            00453198     libcid:istream.obj
 0002:000031a8       ??_R4istream@@6B@          004531a8     libcid:istream.obj
 0002:000031c0       ??_R1A@?0A@A@istream_withassign@@8 004531c0     libcid:istream.obj
 0002:000031d8       ??_R2istream_withassign@@8 004531d8     libcid:istream.obj
 0002:000031e8       ??_R3istream_withassign@@8 004531e8     libcid:istream.obj
 0002:000031f8       ??_R4istream_withassign@@6B@ 004531f8     libcid:istream.obj
 0002:00003210       ??_R1A@?0A@A@ostream@@8    00453210     libcid:ostream.obj
 0002:00003228       ??_R2ostream@@8            00453228     libcid:ostream.obj
 0002:00003238       ??_R3ostream@@8            00453238     libcid:ostream.obj
 0002:00003248       ??_R4ostream@@6B@          00453248     libcid:ostream.obj
 0002:00003260       ??_R1A@?0A@A@ostream_withassign@@8 00453260     libcid:ostream.obj
 0002:00003278       ??_R2ostream_withassign@@8 00453278     libcid:ostream.obj
 0002:00003288       ??_R3ostream_withassign@@8 00453288     libcid:ostream.obj
 0002:00003298       ??_R4ostream_withassign@@6B@ 00453298     libcid:ostream.obj
 0002:000032b0       ??_R1A@?0A@A@ifstream@@8   004532b0     libcid:ifstream.obj
 0002:000032c8       ??_R2ifstream@@8           004532c8     libcid:ifstream.obj
 0002:000032d8       ??_R3ifstream@@8           004532d8     libcid:ifstream.obj
 0002:000032e8       ??_R4ifstream@@6B@         004532e8     libcid:ifstream.obj
 0002:00003300       ??_R1A@?0A@A@ofstream@@8   00453300     libcid:ofstream.obj
 0002:00003318       ??_R2ofstream@@8           00453318     libcid:ofstream.obj
 0002:00003328       ??_R3ofstream@@8           00453328     libcid:ofstream.obj
 0002:00003338       ??_R4ofstream@@6B@         00453338     libcid:ofstream.obj
 0002:00003350       ??_R1A@?0A@A@streambuf@@8  00453350     libcid:filebuf.obj
 0002:00003368       ??_R1A@?0A@A@filebuf@@8    00453368     libcid:filebuf.obj
 0002:00003380       ??_R2filebuf@@8            00453380     libcid:filebuf.obj
 0002:00003390       ??_R3filebuf@@8            00453390     libcid:filebuf.obj
 0002:000033a0       ??_R4filebuf@@6B@          004533a0     libcid:filebuf.obj
 0002:000033b8       ??_R1A@?0A@A@ios@@8        004533b8     libcid:_ios.obj
 0002:000033d0       ??_R2ios@@8                004533d0     libcid:_ios.obj
 0002:000033d8       ??_R3ios@@8                004533d8     libcid:_ios.obj
 0002:000033e8       ??_R4ios@@6B@              004533e8     libcid:_ios.obj
 0002:000033fc       ??_R2streambuf@@8          004533fc     libcid:streamb.obj
 0002:00003408       ??_R3streambuf@@8          00453408     libcid:streamb.obj
 0002:00003418       ??_R4streambuf@@6B@        00453418     libcid:streamb.obj
 0002:00003430       ??_R1A@?0A@A@type_info@@8  00453430     LIBCD:typinfo.obj
 0002:00003448       ??_R2type_info@@8          00453448     LIBCD:typinfo.obj
 0002:00003450       ??_R3type_info@@8          00453450     LIBCD:typinfo.obj
 0002:00003460       ??_R4type_info@@6B@        00453460     LIBCD:typinfo.obj
 0003:00000000       ___xc_a                    00454000     LIBCD:crt0init.obj
 0003:00000008       ___xc_z                    00454008     LIBCD:crt0init.obj
 0003:0000000c       ___xi_a                    0045400c     LIBCD:crt0init.obj
 0003:0000001c       ___xi_z                    0045401c     LIBCD:crt0init.obj
 0003:00000020       ___xp_a                    00454020     LIBCD:crt0init.obj
 0003:00000028       ___xp_z                    00454028     LIBCD:crt0init.obj
 0003:0000002c       ___xt_a                    0045402c     LIBCD:crt0init.obj
 0003:00000034       ___xt_z                    00454034     LIBCD:crt0init.obj
 0003:00000040       ?white@@3PANA              00454040     meobject.obj
 0003:00000060       ?GROUND_LENGTH@@3NA        00454060     meobject.obj
 0003:00000068       ?PI@@3NA                   00454068     meobject.obj
 0003:00000070       ?RAND_SEED@@3HA            00454070     meobject.obj
 0003:00000078       ?STEP_SIZE@@3NA            00454078     meobject.obj
 0003:00000080       ?BODY_FILENAME@@3PADA      00454080     meobject.obj
 0003:000000e4       ?BRAIN_FILENAME@@3PADA     004540e4     meobject.obj
 0003:00000148       ?SENSOR_FILENAME@@3PADA    00454148     meobject.obj
 0003:000001ac       ?OBJECT_FILENAME@@3PADA    004541ac     meobject.obj
 0003:00000210       ?TEMP_FILENAME@@3PADA      00454210     meobject.obj
 0003:00000274       ?TEMP2_FILENAME@@3PADA     00454274     meobject.obj
 0003:000002d8       ?LIGHT_SOURCE_DISTANCE@@3NA 004542d8     meobject.obj
 0003:000002e0       ?LIGHT_SOURCE_SIZE@@3NA    004542e0     meobject.obj
 0003:000002e8       ?DEF_CAMERA_DISTANCE@@3NA  004542e8     meobject.obj
 0003:000002f0       ?DEFAULT_RESTITUTION@@3NA  004542f0     meobject.obj
 0003:000002f8       ?DEFAULT_SOFTNESS@@3NA     004542f8     meobject.obj
 0003:00000300       ?DEBRIS_NUM_OF_DEBRIS_FIELDS@@3HA 00454300     meobject.obj
 0003:00000304       ?DEBRIS_LOOSE_RUBBLE@@3HA  00454304     meobject.obj
 0003:00000308       ?DEBRIS_FIXED_RUBBLE@@3HA  00454308     meobject.obj
 0003:0000030c       ?DEBRIS_EMBEDDED_RUBBLE@@3HA 0045430c     meobject.obj
 0003:00000310       ?DEBRIS_UNEVEN_FLOOR@@3HA  00454310     meobject.obj
 0003:00000314       ?DEBRIS_RAMP@@3HA          00454314     meobject.obj
 0003:00000318       ?DEBRIS_OBJECT_ID@@3HA     00454318     meobject.obj
 0003:0000031c       ?DEBRIS_NUM_OF_RUBBLE@@3HA 0045431c     meobject.obj
 0003:00000320       ?DEBRIS_RUBBLE_RADIUS@@3NA 00454320     meobject.obj
 0003:00000328       ?DEBRIS_UNEVEN_FLOOR_HEIGHT@@3NA 00454328     meobject.obj
 0003:00000330       ?RANDOM_DISPERSAL@@3HA     00454330     meobject.obj
 0003:00000338       ?DISP_DIST@@3NA            00454338     meobject.obj
 0003:00000340       ?DISP_PTS@@3PANA           00454340     meobject.obj
 0003:000004c0       ?PLUME_EVALUATIONS@@3HA    004544c0     meobject.obj
 0003:000004c4       ?PLUME_RESOLUTION@@3HA     004544c4     meobject.obj
 0003:000004c8       ?PLUME_AREA@@3NA           004544c8     meobject.obj
 0003:000004d0       ?PLUME_PT_SRC_X@@3PANA     004544d0     meobject.obj
 0003:000004f0       ?PLUME_PT_SRC_Y@@3PANA     004544f0     meobject.obj
 0003:00000510       ?NOISE_TRIALS@@3HA         00454510     meobject.obj
 0003:00000514       ?POPULATION_SIZE@@3HA      00454514     meobject.obj
 0003:00000518       ?NUM_GENERATIONS@@3HA      00454518     meobject.obj
 0003:0000051c       ?FLOATING_PT_PRECISION@@3HA 0045451c     meobject.obj
 0003:00000520       ?DEFAULT_EVALUATION_PERIOD@@3HA 00454520     meobject.obj
 0003:00000528       ?CULL_FRACTION@@3NA        00454528     meobject.obj
 0003:00000530       ?CROSS_FRACTION@@3NA       00454530     meobject.obj
 0003:00000538       ?AVG_NUM_OF_MUTS@@3NA      00454538     meobject.obj
 0003:00000540       ?MUTATION_INCREMENT@@3NA   00454540     meobject.obj
 0003:00000548       ?TOURNEY_SIZE@@3HA         00454548     meobject.obj
 0003:0000054c       ?BIAS_NODES@@3HA           0045454c     meobject.obj
 0003:00000550       ?SENSOR_NEURON_RADIUS@@3NA 00454550     meobject.obj
 0003:00000558       ?HIDDEN_NEURON_RADIUS@@3NA 00454558     meobject.obj
 0003:00000560       ?MOTOR_NEURON_RADIUS@@3NA  00454560     meobject.obj
 0003:00000568       ?NN_WIDTH@@3NA             00454568     meobject.obj
 0003:00000570       ?CYLINDER@@3HA             00454570     meobject.obj
 0003:00000574       ?SPHERE@@3HA               00454574     meobject.obj
 0003:00000578       ?TRAJECTORY_POINT_RADIUS@@3NA 00454578     meobject.obj
 0003:00000580       ?BELLY_SENSOR_DISTANCE@@3NA 00454580     meobject.obj
 0003:00000588       ?DEF_MOTOR_FORCE@@3NA      00454588     meobject.obj
 0003:00000590       ?DEF_MOTOR_SPEED@@3NA      00454590     meobject.obj
 0003:00000598       ?MAX_JOINT_SEPARATION@@3NA 00454598     meobject.obj
 0003:000005a0       ?JOINT_BALL@@3HA           004545a0     meobject.obj
 0003:000005a4       ?JOINT_FIXED@@3HA          004545a4     meobject.obj
 0003:000005a8       ?JOINT_SLIDER@@3HA         004545a8     meobject.obj
 0003:000005ac       ?JOINT_WORLD@@3HA          004545ac     meobject.obj
 0003:000005b0       ?JOINT_SPRING@@3HA         004545b0     meobject.obj
 0003:00000630       ?__dball_vtable@@3UVtable@dxJoint@@A 00454630     ode:joint.obj
 0003:00000648       ?__dhinge_vtable@@3UVtable@dxJoint@@A 00454648     ode:joint.obj
 0003:00000660       ?__dslider_vtable@@3UVtable@dxJoint@@A 00454660     ode:joint.obj
 0003:00000678       ?__dcontact_vtable@@3UVtable@dxJoint@@A 00454678     ode:joint.obj
 0003:00000690       ?__dhinge2_vtable@@3UVtable@dxJoint@@A 00454690     ode:joint.obj
 0003:000006a8       ?__duniversal_vtable@@3UVtable@dxJoint@@A 004546a8     ode:joint.obj
 0003:000006c0       ?__damotor_vtable@@3UVtable@dxJoint@@A 004546c0     ode:joint.obj
 0003:000006d8       ?__dfixed_vtable@@3UVtable@dxJoint@@A 004546d8     ode:joint.obj
 0003:000006f0       ?__dnull_vtable@@3UVtable@dxJoint@@A 004546f0     ode:joint.obj
 0003:00000708       _dInfinityValue            00454708     ode:odemath.obj
 0003:00000918       ??_R0?AVios@@@8            00454918     libcid:istream.obj
 0003:00000930       ??_R0?AVistream@@@8        00454930     libcid:istream.obj
 0003:00000948       ??_R0?AVistream_withassign@@@8 00454948     libcid:istream.obj
 0003:00000970       ??_R0?AVostream@@@8        00454970     libcid:ostream.obj
 0003:00000988       ??_R0?AVostream_withassign@@@8 00454988     libcid:ostream.obj
 0003:000009b0       ??_R0?AVifstream@@@8       004549b0     libcid:ifstream.obj
 0003:000009c8       ??_R0?AVofstream@@@8       004549c8     libcid:ofstream.obj
 0003:000009e0       ??_R0?AVstreambuf@@@8      004549e0     libcid:filebuf.obj
 0003:000009f8       ??_R0?AVfilebuf@@@8        004549f8     libcid:filebuf.obj
 0003:00000a10       ?x_maxbit@ios@@0JA         00454a10     libcid:_ios.obj
 0003:00000a14       ?x_curindex@ios@@0HA       00454a14     libcid:_ios.obj
 0003:00000a18       __fltused                  00454a18     LIBCD:fpinit.obj
 0003:00000a1c       __ldused                   00454a1c     LIBCD:fpinit.obj
 0003:00000a20       __FPinit                   00454a20     LIBCD:fpinit.obj
 0003:00000a24       __FPmtinit                 00454a24     LIBCD:fpinit.obj
 0003:00000a28       __FPmtterm                 00454a28     LIBCD:fpinit.obj
 0003:00000a2c       __NLG_Destination          00454a2c     LIBCD:exsup.obj
 0003:00000a40       __iob                      00454a40     LIBCD:_file.obj
 0003:00000cd0       __half                     00454cd0     LIBCD:pow.obj
 0003:00000d24       __aexit_rtn                00454d24     LIBCD:crt0.obj
 0003:00000d28       ___app_type                00454d28     LIBCD:crt0.obj
 0003:00000d40       __crtDbgFlag               00454d40     LIBCD:dbgheap.obj
 0003:00000d48       __crtBreakAlloc            00454d48     LIBCD:dbgheap.obj
 0003:00000d68       ??_R0?AVtype_info@@@8      00454d68     LIBCD:typinfo.obj
 0003:00000d80       ___badioinfo               00454d80     LIBCD:ioinit.obj
 0003:00000d90       __crtAssertBusy            00454d90     LIBCD:dbgrpt.obj
 0003:00000d94       __CrtDbgMode               00454d94     LIBCD:dbgrpt.obj
 0003:00000da0       __CrtDbgFile               00454da0     LIBCD:dbgrpt.obj
 0003:00000dc0       ?__pUnexpected@@3P6AXXZA   00454dc0     LIBCD:hooks.obj
 0003:00000dc4       ?__pInconsistency@@3P6AXXZA 00454dc4     LIBCD:hooks.obj
 0003:00000dc8       __cfltcvt_tab              00454dc8     LIBCD:cmiscdat.obj
 0003:00000de0       __pctype                   00454de0     LIBCD:ctype.obj
 0003:00000de4       __pwctype                  00454de4     LIBCD:ctype.obj
 0003:00000de8       __ctype                    00454de8     LIBCD:ctype.obj
 0003:00000fec       ___mb_cur_max              00454fec     LIBCD:nlsdata1.obj
 0003:00000ff0       ___decimal_point           00454ff0     LIBCD:nlsdata1.obj
 0003:00000ff4       ___decimal_point_length    00454ff4     LIBCD:nlsdata1.obj
 0003:00001000       ___nullstring              00455000     LIBCD:output.obj
 0003:00001004       ___wnullstring             00455004     LIBCD:output.obj
 0003:00001010       __indefinite               00455010     LIBCD:87disp.obj
 0003:0000101a       __piby2                    0045501a     LIBCD:87disp.obj
 0003:0000102c       __cpower                   0045502c     LIBCD:87disp.obj
 0003:00001040       __infinity                 00455040     LIBCD:87tran.obj
 0003:0000104a       __minfinity                0045504a     LIBCD:87tran.obj
 0003:00001054       __logemax                  00455054     LIBCD:87tran.obj
 0003:00001084       __OP_EXPjmptab             00455084     LIBCD:87tran.obj
 0003:00001180       __d_inf                    00455180     LIBCD:util.obj
 0003:00001188       __d_ind                    00455188     LIBCD:util.obj
 0003:00001190       __d_max                    00455190     LIBCD:util.obj
 0003:00001198       __d_min                    00455198     LIBCD:util.obj
 0003:000011a0       __d_mzero                  004551a0     LIBCD:util.obj
 0003:000011e0       __XcptActTab               004551e0     LIBCD:winxfltr.obj
 0003:00001258       __First_FPE_Indx           00455258     LIBCD:winxfltr.obj
 0003:0000125c       __Num_FPE                  0045525c     LIBCD:winxfltr.obj
 0003:00001260       __XcptActTabCount          00455260     LIBCD:winxfltr.obj
 0003:00001264       __fpecode                  00455264     LIBCD:winxfltr.obj
 0003:00001268       __amblksiz                 00455268     LIBCD:heapinit.obj
 0003:00001300       __pfnAllocHook             00455300     LIBCD:dbghook.obj
 0003:00001304       ___sbh_threshold           00455304     LIBCD:sbheap.obj
 0003:00001470       __HUGE                     00455470     LIBCD:huge.obj
 0003:00001610       __matherr_flag             00455610     LIBCD:matherr.obj
 0003:00001614       __p_overlay                00455614     LIBCD:dospawn.obj
 0003:00001710       __pow10pos                 00455710     LIBCD:constpow.obj
 0003:00001870       __pow10neg                 00455870     LIBCD:constpow.obj
 0003:000019d0       ?CURRENT_DEBRIS_TYPE@@3HA  004559d0     meobject.obj
 0003:000019d4       ?DEBRIS_NONE@@3HA          004559d4     meobject.obj
 0003:000019d8       ?MOVING_PLUME@@3HA         004559d8     meobject.obj
 0003:000019dc       ?TURBULENT_PLUME@@3HA      004559dc     meobject.obj
 0003:000019e0       ?FUNCTION_AS_READER@@3HA   004559e0     meobject.obj
 0003:000019e4       ?OUTPUT_RAYTRACER_FILE@@3HA 004559e4     meobject.obj
 0003:000019e8       ?OUTPUT_FOOTPRINTS@@3HA    004559e8     meobject.obj
 0003:000019ec       ?CREATE_PLUME@@3HA         004559ec     meobject.obj
 0003:000019f0       ?ADD_NOISE@@3HA            004559f0     meobject.obj
 0003:000019f4       ?OUTPUT_TRAJECTORY@@3HA    004559f4     meobject.obj
 0003:000019f8       ?OUTPUT_DEBRIS@@3HA        004559f8     meobject.obj
 0003:000019fc       ?UNEVEN_CROSSOVER@@3HA     004559fc     meobject.obj
 0003:00001a00       ?RECTANGLE@@3HA            00455a00     meobject.obj
 0003:00001a04       ?JOINT_HINGE@@3HA          00455a04     meobject.obj
 0003:00001a08       ?fn@@3UdsFunctions@@A      00455a08     MorphEngine.obj
 0003:00001a20       ?env@@3PAVENVIRONMENT@@A   00455a20     MorphEngine.obj
 0003:00001a24       ?simParams@@3PAVSIM_PARAMS@@A 00455a24     MorphEngine.obj
 0003:00002f2c       ?x_statebuf@ios@@0PAJA     00456f2c     libcid:_ios.obj
 0003:00002f30       ___fastflag                00456f30     LIBCD:fpinit.obj
 0003:00002f34       __adjust_fdiv              00456f34     LIBCD:fpinit.obj
 0003:00002f38       _errno                     00456f38     LIBCD:crt0dat.obj
 0003:00002f3c       __doserrno                 00456f3c     LIBCD:crt0dat.obj
 0003:00002f40       __umaskval                 00456f40     LIBCD:crt0dat.obj
 0003:00002f44       __osver                    00456f44     LIBCD:crt0dat.obj
 0003:00002f48       __winver                   00456f48     LIBCD:crt0dat.obj
 0003:00002f4c       __winmajor                 00456f4c     LIBCD:crt0dat.obj
 0003:00002f50       __winminor                 00456f50     LIBCD:crt0dat.obj
 0003:00002f54       ___argc                    00456f54     LIBCD:crt0dat.obj
 0003:00002f58       ___argv                    00456f58     LIBCD:crt0dat.obj
 0003:00002f5c       ___wargv                   00456f5c     LIBCD:crt0dat.obj
 0003:00002f60       __environ                  00456f60     LIBCD:crt0dat.obj
 0003:00002f64       ___initenv                 00456f64     LIBCD:crt0dat.obj
 0003:00002f68       __wenviron                 00456f68     LIBCD:crt0dat.obj
 0003:00002f6c       ___winitenv                00456f6c     LIBCD:crt0dat.obj
 0003:00002f70       __pgmptr                   00456f70     LIBCD:crt0dat.obj
 0003:00002f74       __wpgmptr                  00456f74     LIBCD:crt0dat.obj
 0003:00002f78       __exitflag                 00456f78     LIBCD:crt0dat.obj
 0003:00002f7c       __C_Termination_Done       00456f7c     LIBCD:crt0dat.obj
 0003:00002f80       __C_Exit_Done              00456f80     LIBCD:crt0dat.obj
 0003:00002f88       __cflush                   00456f88     LIBCD:_file.obj
 0003:00002f8c       __aenvptr                  00456f8c     LIBCD:crt0.obj
 0003:00002f90       __wenvptr                  00456f90     LIBCD:crt0.obj
 0003:00002f94       ___error_mode              00456f94     LIBCD:crt0.obj
 0003:00002fb0       ?_pCurrentException@@3PAUEHExceptionRecord@@A 00456fb0     LIBCD:frame.obj
 0003:00002fb4       ?_pCurrentExContext@@3PAU_CONTEXT@@A 00456fb4     LIBCD:frame.obj
 0003:00002fb8       ?__pSETranslator@@3P6AXIPAU_EXCEPTION_POINTERS@@@ZA 00456fb8     LIBCD:hooks.obj
 0003:00002fbc       ?__pTerminate@@3P6AXXZA    00456fbc     LIBCD:hooks.obj
 0003:00002fd0       __stdbuf                   00456fd0     LIBCD:_sftbuf.obj
 0003:00002ffc       __pxcptinfoptrs            00456ffc     LIBCD:winxfltr.obj
 0003:00003108       __adbgmsg                  00457108     LIBCD:crt0msg.obj
 0003:0000310c       __newmode                  0045710c     LIBCD:_newmode.obj
 0003:00003110       ?_pnhHeap@@3P6AHI@ZA       00457110     LIBCD:handler.obj
 0003:0000312c       ___lc_handle               0045712c     LIBCD:nlsdata2.obj
 0003:00003144       ___lc_codepage             00457144     LIBCD:nlsdata2.obj
 0003:00003148       ___lc_collate_cp           00457148     LIBCD:nlsdata2.obj
 0003:0000314c       __fmode                    0045714c     LIBCD:txtmode.obj
 0003:00003198       __commode                  00457198     LIBCD:ncommode.obj
 0003:000031a0       ___mbcodepage              004571a0     <common>
 0003:000031b0       ___mbulinfo                004571b0     <common>
 0003:000031bc       ___ismbcodepage            004571bc     <common>
 0003:000031c0       __mbcasemap                004571c0     <common>
 0003:000032c0       __mbctype                  004572c0     <common>
 0003:000033c4       ___mblcid                  004573c4     <common>
 0003:000033c8       ___sbh_sizeHeaderList      004573c8     <common>
 0003:000033cc       ___sbh_indGroupDefer       004573cc     <common>
 0003:000033d0       ___sbh_pHeaderScan         004573d0     <common>
 0003:000033d4       ___sbh_pHeaderDefer        004573d4     <common>
 0003:000033d8       ___sbh_cntHeaderList       004573d8     <common>
 0003:000033dc       ___sbh_pHeaderList         004573dc     <common>
 0003:000033e0       __crtheap                  004573e0     <common>
 0003:000033e4       __pfnReportHook            004573e4     <common>
 0003:00003400       ___pioinfo                 00457400     <common>
 0003:00003500       __nhandle                  00457500     <common>
 0003:00003504       __pfnDumpClient            00457504     <common>
 0003:00003508       __acmdln                   00457508     <common>
 0003:0000350c       ___piob                    0045750c     <common>
 0003:00003520       __bufin                    00457520     <common>
 0003:00004520       __nstream                  00458520     <common>
 0003:00004524       ___env_initialized         00458524     <common>
 0003:00004528       ___mbctype_initialized     00458528     <common>
 0003:0000452c       ___onexitend               0045852c     <common>
 0003:00004530       ___onexitbegin             00458530     <common>
 0004:00000000       __IMPORT_DESCRIPTOR_OPENGL32 00459000     OpenGL32:OPENGL32.dll
 0004:00000014       __IMPORT_DESCRIPTOR_GLU32  00459014     Glu32:GLU32.dll
 0004:00000028       __IMPORT_DESCRIPTOR_KERNEL32 00459028     kernel32:KERNEL32.dll
 0004:0000003c       __IMPORT_DESCRIPTOR_USER32 0045903c     user32:USER32.dll
 0004:00000050       __IMPORT_DESCRIPTOR_GDI32  00459050     gdi32:GDI32.dll
 0004:00000064       __NULL_IMPORT_DESCRIPTOR   00459064     OpenGL32:OPENGL32.dll
 0004:000002f0       __imp__SetPixelFormat@12   004592f0     gdi32:GDI32.dll
 0004:000002f4       __imp__ChoosePixelFormat@8 004592f4     gdi32:GDI32.dll
 0004:000002f8       __imp__SwapBuffers@4       004592f8     gdi32:GDI32.dll
 0004:000002fc       \177GDI32_NULL_THUNK_DATA  004592fc     gdi32:GDI32.dll
 0004:00000300       __imp__gluBuild2DMipmaps@28 00459300     Glu32:GLU32.dll
 0004:00000304       \177GLU32_NULL_THUNK_DATA  00459304     Glu32:GLU32.dll
 0004:00000308       __imp__RaiseException@16   00459308     kernel32:KERNEL32.dll
 0004:0000030c       __imp__GetModuleFileNameA@12 0045930c     kernel32:KERNEL32.dll
 0004:00000310       __imp__InterlockedIncrement@4 00459310     kernel32:KERNEL32.dll
 0004:00000314       __imp__LoadLibraryA@4      00459314     kernel32:KERNEL32.dll
 0004:00000318       __imp__GetProcAddress@8    00459318     kernel32:KERNEL32.dll
 0004:0000031c       __imp__OutputDebugStringA@4 0045931c     kernel32:KERNEL32.dll
 0004:00000320       __imp__InterlockedDecrement@4 00459320     kernel32:KERNEL32.dll
 0004:00000324       __imp__DebugBreak@0        00459324     kernel32:KERNEL32.dll
 0004:00000328       __imp__CreateFileA@28      00459328     kernel32:KERNEL32.dll
 0004:0000032c       __imp__GetStartupInfoA@4   0045932c     kernel32:KERNEL32.dll
 0004:00000330       __imp__GetFileType@4       00459330     kernel32:KERNEL32.dll
 0004:00000334       __imp__GetStdHandle@4      00459334     kernel32:KERNEL32.dll
 0004:00000338       __imp__SetHandleCount@4    00459338     kernel32:KERNEL32.dll
 0004:0000033c       __imp__SetFilePointer@16   0045933c     kernel32:KERNEL32.dll
 0004:00000340       __imp__ReadFile@20         00459340     kernel32:KERNEL32.dll
 0004:00000344       __imp__WriteFile@20        00459344     kernel32:KERNEL32.dll
 0004:00000348       __imp__GetLastError@0      00459348     kernel32:KERNEL32.dll
 0004:0000034c       __imp__HeapValidate@12     0045934c     kernel32:KERNEL32.dll
 0004:00000350       __imp__IsBadReadPtr@8      00459350     kernel32:KERNEL32.dll
 0004:00000354       __imp__IsBadWritePtr@8     00459354     kernel32:KERNEL32.dll
 0004:00000358       __imp__GetFileAttributesA@4 00459358     kernel32:KERNEL32.dll
 0004:0000035c       __imp__GetCommandLineA@0   0045935c     kernel32:KERNEL32.dll
 0004:00000360       __imp__GetCurrentProcess@0 00459360     kernel32:KERNEL32.dll
 0004:00000364       __imp__TerminateProcess@8  00459364     kernel32:KERNEL32.dll
 0004:00000368       __imp__ExitProcess@4       00459368     kernel32:KERNEL32.dll
 0004:0000036c       __imp__RtlUnwind@16        0045936c     kernel32:KERNEL32.dll
 0004:00000370       __imp__UnhandledExceptionFilter@4 00459370     kernel32:KERNEL32.dll
 0004:00000374       __imp__FreeEnvironmentStringsA@4 00459374     kernel32:KERNEL32.dll
 0004:00000378       __imp__FreeEnvironmentStringsW@4 00459378     kernel32:KERNEL32.dll
 0004:0000037c       __imp__WideCharToMultiByte@32 0045937c     kernel32:KERNEL32.dll
 0004:00000380       __imp__GetEnvironmentStringsW@0 00459380     kernel32:KERNEL32.dll
 0004:00000384       __imp__HeapDestroy@4       00459384     kernel32:KERNEL32.dll
 0004:00000388       __imp__HeapCreate@12       00459388     kernel32:KERNEL32.dll
 0004:0000038c       __imp__HeapFree@12         0045938c     kernel32:KERNEL32.dll
 0004:00000390       __imp__VirtualFree@12      00459390     kernel32:KERNEL32.dll
 0004:00000394       __imp__HeapAlloc@12        00459394     kernel32:KERNEL32.dll
 0004:00000398       __imp__HeapReAlloc@16      00459398     kernel32:KERNEL32.dll
 0004:0000039c       __imp__VirtualAlloc@16     0045939c     kernel32:KERNEL32.dll
 0004:000003a0       __imp__SetConsoleCtrlHandler@8 004593a0     kernel32:KERNEL32.dll
 0004:000003a4       __imp__FlushFileBuffers@4  004593a4     kernel32:KERNEL32.dll
 0004:000003a8       __imp__MultiByteToWideChar@24 004593a8     kernel32:KERNEL32.dll
 0004:000003ac       __imp__LCMapStringA@24     004593ac     kernel32:KERNEL32.dll
 0004:000003b0       __imp__LCMapStringW@24     004593b0     kernel32:KERNEL32.dll
 0004:000003b4       __imp__SetStdHandle@8      004593b4     kernel32:KERNEL32.dll
 0004:000003b8       __imp__SetEndOfFile@4      004593b8     kernel32:KERNEL32.dll
 0004:000003bc       __imp__SetUnhandledExceptionFilter@4 004593bc     kernel32:KERNEL32.dll
 0004:000003c0       __imp__GetVersion@0        004593c0     kernel32:KERNEL32.dll
 0004:000003c4       __imp__SetEnvironmentVariableA@8 004593c4     kernel32:KERNEL32.dll
 0004:000003c8       __imp__QueryPerformanceFrequency@4 004593c8     kernel32:KERNEL32.dll
 0004:000003cc       __imp__QueryPerformanceCounter@4 004593cc     kernel32:KERNEL32.dll
 0004:000003d0       __imp__CloseHandle@4       004593d0     kernel32:KERNEL32.dll
 0004:000003d4       __imp__GetExitCodeThread@8 004593d4     kernel32:KERNEL32.dll
 0004:000003d8       __imp__WaitForSingleObject@8 004593d8     kernel32:KERNEL32.dll
 0004:000003dc       __imp__CreateThread@24     004593dc     kernel32:KERNEL32.dll
 0004:000003e0       __imp__SetConsoleTitleA@4  004593e0     kernel32:KERNEL32.dll
 0004:000003e4       __imp__AllocConsole@0      004593e4     kernel32:KERNEL32.dll
 0004:000003e8       __imp__FreeConsole@0       004593e8     kernel32:KERNEL32.dll
 0004:000003ec       __imp__GetModuleHandleA@4  004593ec     kernel32:KERNEL32.dll
 0004:000003f0       __imp__Sleep@4             004593f0     kernel32:KERNEL32.dll
 0004:000003f4       __imp__GetTickCount@0      004593f4     kernel32:KERNEL32.dll
 0004:000003f8       __imp__GetCurrentProcessId@0 004593f8     kernel32:KERNEL32.dll
 0004:000003fc       __imp__CompareStringW@24   004593fc     kernel32:KERNEL32.dll
 0004:00000400       __imp__CompareStringA@24   00459400     kernel32:KERNEL32.dll
 0004:00000404       __imp__GetOEMCP@0          00459404     kernel32:KERNEL32.dll
 0004:00000408       __imp__GetACP@0            00459408     kernel32:KERNEL32.dll
 0004:0000040c       __imp__GetCPInfo@8         0045940c     kernel32:KERNEL32.dll
 0004:00000410       __imp__CreateProcessA@40   00459410     kernel32:KERNEL32.dll
 0004:00000414       __imp__GetExitCodeProcess@8 00459414     kernel32:KERNEL32.dll
 0004:00000418       __imp__GetStringTypeW@16   00459418     kernel32:KERNEL32.dll
 0004:0000041c       __imp__GetStringTypeA@20   0045941c     kernel32:KERNEL32.dll
 0004:00000420       __imp__IsBadCodePtr@4      00459420     kernel32:KERNEL32.dll
 0004:00000424       __imp__GetEnvironmentStrings@0 00459424     kernel32:KERNEL32.dll
 0004:00000428       \177KERNEL32_NULL_THUNK_DATA 00459428     kernel32:KERNEL32.dll
 0004:0000042c       __imp__glTexEnvf@12        0045942c     OpenGL32:OPENGL32.dll
 0004:00000430       __imp__wglCreateContext@4  00459430     OpenGL32:OPENGL32.dll
 0004:00000434       __imp__wglMakeCurrent@8    00459434     OpenGL32:OPENGL32.dll
 0004:00000438       __imp__glGetIntegerv@8     00459438     OpenGL32:OPENGL32.dll
 0004:0000043c       __imp__wglDeleteContext@4  0045943c     OpenGL32:OPENGL32.dll
 0004:00000440       __imp__glLineWidth@4       00459440     OpenGL32:OPENGL32.dll
 0004:00000444       __imp__glNormal3d@24       00459444     OpenGL32:OPENGL32.dll
 0004:00000448       __imp__glVertex3d@24       00459448     OpenGL32:OPENGL32.dll
 0004:0000044c       __imp__glNormal3fv@4       0045944c     OpenGL32:OPENGL32.dll
 0004:00000450       __imp__glVertex3fv@4       00459450     OpenGL32:OPENGL32.dll
 0004:00000454       __imp__glGenLists@4        00459454     OpenGL32:OPENGL32.dll
 0004:00000458       __imp__glNewList@8         00459458     OpenGL32:OPENGL32.dll
 0004:0000045c       __imp__glEndList@0         0045945c     OpenGL32:OPENGL32.dll
 0004:00000460       __imp__glCallList@4        00459460     OpenGL32:OPENGL32.dll
 0004:00000464       __imp__glScaled@24         00459464     OpenGL32:OPENGL32.dll
 0004:00000468       __imp__glTexGeni@12        00459468     OpenGL32:OPENGL32.dll
 0004:0000046c       __imp__glTexGenfv@12       0045946c     OpenGL32:OPENGL32.dll
 0004:00000470       __imp__glBlendFunc@8       00459470     OpenGL32:OPENGL32.dll
 0004:00000474       __imp__glMultMatrixf@4     00459474     OpenGL32:OPENGL32.dll
 0004:00000478       __imp__glDepthRange@16     00459478     OpenGL32:OPENGL32.dll
 0004:0000047c       __imp__glPushMatrix@0      0045947c     OpenGL32:OPENGL32.dll
 0004:00000480       __imp__glPopMatrix@0       00459480     OpenGL32:OPENGL32.dll
 0004:00000484       __imp__glBegin@4           00459484     OpenGL32:OPENGL32.dll
 0004:00000488       __imp__glNormal3f@12       00459488     OpenGL32:OPENGL32.dll
 0004:0000048c       __imp__glTexCoord2f@8      0045948c     OpenGL32:OPENGL32.dll
 0004:00000490       __imp__glVertex3f@12       00459490     OpenGL32:OPENGL32.dll
 0004:00000494       __imp__glEnd@0             00459494     OpenGL32:OPENGL32.dll
 0004:00000498       __imp__glMaterialfv@12     00459498     OpenGL32:OPENGL32.dll
 0004:0000049c       __imp__glMaterialf@12      0045949c     OpenGL32:OPENGL32.dll
 0004:000004a0       __imp__glRotatef@16        004594a0     OpenGL32:OPENGL32.dll
 0004:000004a4       __imp__glTranslatef@12     004594a4     OpenGL32:OPENGL32.dll
 0004:000004a8       __imp__glEnable@4          004594a8     OpenGL32:OPENGL32.dll
 0004:000004ac       __imp__glDisable@4         004594ac     OpenGL32:OPENGL32.dll
 0004:000004b0       __imp__glShadeModel@4      004594b0     OpenGL32:OPENGL32.dll
 0004:000004b4       __imp__glDepthFunc@4       004594b4     OpenGL32:OPENGL32.dll
 0004:000004b8       __imp__glCullFace@4        004594b8     OpenGL32:OPENGL32.dll
 0004:000004bc       __imp__glFrontFace@4       004594bc     OpenGL32:OPENGL32.dll
 0004:000004c0       __imp__glViewport@16       004594c0     OpenGL32:OPENGL32.dll
 0004:000004c4       __imp__glMatrixMode@4      004594c4     OpenGL32:OPENGL32.dll
 0004:000004c8       __imp__glLoadIdentity@0    004594c8     OpenGL32:OPENGL32.dll
 0004:000004cc       __imp__glFrustum@48        004594cc     OpenGL32:OPENGL32.dll
 0004:000004d0       __imp__glLightfv@12        004594d0     OpenGL32:OPENGL32.dll
 0004:000004d4       __imp__glColor3f@12        004594d4     OpenGL32:OPENGL32.dll
 0004:000004d8       __imp__glClearColor@16     004594d8     OpenGL32:OPENGL32.dll
 0004:000004dc       __imp__glClear@4           004594dc     OpenGL32:OPENGL32.dll
 0004:000004e0       __imp__glTexEnvi@12        004594e0     OpenGL32:OPENGL32.dll
 0004:000004e4       __imp__glDeleteTextures@8  004594e4     OpenGL32:OPENGL32.dll
 0004:000004e8       __imp__glGenTextures@8     004594e8     OpenGL32:OPENGL32.dll
 0004:000004ec       __imp__glBindTexture@8     004594ec     OpenGL32:OPENGL32.dll
 0004:000004f0       __imp__glPixelStorei@8     004594f0     OpenGL32:OPENGL32.dll
 0004:000004f4       __imp__glTexParameterf@12  004594f4     OpenGL32:OPENGL32.dll
 0004:000004f8       \177OPENGL32_NULL_THUNK_DATA 004594f8     OpenGL32:OPENGL32.dll
 0004:000004fc       __imp__PostMessageA@16     004594fc     user32:USER32.dll
 0004:00000500       __imp__wsprintfA           00459500     user32:USER32.dll
 0004:00000504       __imp__FindWindowA@8       00459504     user32:USER32.dll
 0004:00000508       __imp__EndDialog@8         00459508     user32:USER32.dll
 0004:0000050c       __imp__PostQuitMessage@4   0045950c     user32:USER32.dll
 0004:00000510       __imp__DialogBoxParamA@20  00459510     user32:USER32.dll
 0004:00000514       __imp__GetMenu@4           00459514     user32:USER32.dll
 0004:00000518       __imp__CheckMenuItem@12    00459518     user32:USER32.dll
 0004:0000051c       __imp__SetCapture@4        0045951c     user32:USER32.dll
 0004:00000520       __imp__ReleaseCapture@0    00459520     user32:USER32.dll
 0004:00000524       __imp__DefWindowProcA@16   00459524     user32:USER32.dll
 0004:00000528       __imp__BringWindowToTop@4  00459528     user32:USER32.dll
 0004:0000052c       __imp__LoadIconA@8         0045952c     user32:USER32.dll
 0004:00000530       __imp__LoadCursorA@8       00459530     user32:USER32.dll
 0004:00000534       __imp__LoadAcceleratorsA@8 00459534     user32:USER32.dll
 0004:00000538       __imp__AdjustWindowRect@12 00459538     user32:USER32.dll
 0004:0000053c       __imp__CreateWindowExA@48  0045953c     user32:USER32.dll
 0004:00000540       __imp__ShowWindow@8        00459540     user32:USER32.dll
 0004:00000544       __imp__GetDC@4             00459544     user32:USER32.dll
 0004:00000548       __imp__GetMessageA@16      00459548     user32:USER32.dll
 0004:0000054c       __imp__TranslateMessage@4  0045954c     user32:USER32.dll
 0004:00000550       __imp__TranslateAcceleratorA@12 00459550     user32:USER32.dll
 0004:00000554       __imp__DispatchMessageA@4  00459554     user32:USER32.dll
 0004:00000558       __imp__DestroyWindow@4     00459558     user32:USER32.dll
 0004:0000055c       __imp__MessageBoxA@16      0045955c     user32:USER32.dll
 0004:00000560       __imp__RegisterClassA@4    00459560     user32:USER32.dll
 0004:00000564       \177USER32_NULL_THUNK_DATA 00459564     user32:USER32.dll

 entry point at        0001:000389d0

 Static symbols

 0001:00010da0       ?nearCallback@@YAXPAXPAUdxGeom@@1@Z 00411da0 f   MorphEngine.obj
 0001:000111e0       ?start@@YAXXZ              004121e0 f   MorphEngine.obj
 0001:00011200       ?simLoop@@YAXH@Z           00412200 f   MorphEngine.obj
 0001:00011240       ?command@@YAXH@Z           00412240 f   MorphEngine.obj
 0001:0000b7c0       _$E2                       0040c7c0 f   meobject.obj
 0001:0000b7f0       _$E1                       0040c7f0 f   meobject.obj
 0001:0002ed40       ?initSlots@@YAXXZ          0042fd40 f   ode:timer.obj
 0001:0002f070       ?fprintDoubleWithPrefix@@YAXPAU_iobuf@@NPAD@Z 00430070 f   ode:timer.obj
 0001:0002e963       _dSolveL1_1                0042f963 f   ode:fastldlt.obj
 0001:0002ea46       _dSolveL1_2                0042fa46 f   ode:fastldlt.obj
 0001:0002cae0       ?swapProblem@@YAXPAPANPAN1111PAH22HHHHH@Z 0042dae0 f   ode:lcp.obj
 0001:0002cbc0       ?swapRowsAndCols@@YAXPAPANHHHHH@Z 0042dbc0 f   ode:lcp.obj
 0001:0002a230       ?Multiply2_p8r@@YAXPAN00HHH@Z 0042b230 f   ode:step.obj
 0001:0002a2b0       ?MultiplyAdd2_p8r@@YAXPAN00HHH@Z 0042b2b0 f   ode:step.obj
 0001:0002a330       ?Multiply0_p81@@YAXPAN00H@Z 0042b330 f   ode:step.obj
 0001:0002a380       ?MultiplyAdd0_p81@@YAXPAN00H@Z 0042b380 f   ode:step.obj
 0001:0002a3e0       ?MultiplyAdd1_8q1@@YAXPAN00H@Z 0042b3e0 f   ode:step.obj
 0001:0002a4e0       ?Multiply1_8q1@@YAXPAN00H@Z 0042b4e0 f   ode:step.obj
 0001:000270b0       ?printMessage@@YAXHPBD0PAD@Z 004280b0 f   ode:error.obj
 0001:00024790       ?checkMass@@YAHPAUdMass@@@Z 00425790 f   ode:mass.obj
 0001:0001e900       ?ballInit@@YAXPAUdxJointBall@@@Z 0041f900 f   ode:joint.obj
 0001:0001e920       ?ballGetInfo1@@YAXPAUdxJointBall@@PAUInfo1@dxJoint@@@Z 0041f920 f   ode:joint.obj
 0001:0001e940       ?ballGetInfo2@@YAXPAUdxJointBall@@PAUInfo2@dxJoint@@@Z 0041f940 f   ode:joint.obj
 0001:0001ebe0       ?setAnchors@@YAXPAUdxJoint@@NNNQAN1@Z 0041fbe0 f   ode:joint.obj
 0001:0001ed60       ?getAnchor@@YAXPAUdxJoint@@QAN1@Z 0041fd60 f   ode:joint.obj
 0001:0001ee10       ?getAnchor2@@YAXPAUdxJoint@@QAN1@Z 0041fe10 f   ode:joint.obj
 0001:0001ef20       ?hingeInit@@YAXPAUdxJointHinge@@@Z 0041ff20 f   ode:joint.obj
 0001:0001efa0       ?hingeGetInfo1@@YAXPAUdxJointHinge@@PAUInfo1@dxJoint@@@Z 0041ffa0 f   ode:joint.obj
 0001:0001f060       ?getHingeAngle@@YANPAUdxBody@@0QAN1@Z 00420060 f   ode:joint.obj
 0001:0001f0d0       ?getHingeAngleFromRelativeQuat@@YANQAN0@Z 004200d0 f   ode:joint.obj
 0001:0001f140       ?hingeGetInfo2@@YAXPAUdxJointHinge@@PAUInfo2@dxJoint@@@Z 00420140 f   ode:joint.obj
 0001:0001f6c0       ?hingeComputeInitialRelativeRotation@@YAXPAUdxJointHinge@@@Z 004206c0 f   ode:joint.obj
 0001:0001f770       ?setAxes@@YAXPAUdxJoint@@NNNQAN1@Z 00420770 f   ode:joint.obj
 0001:0001f970       ?getAxis@@YAXPAUdxJoint@@QAN1@Z 00420970 f   ode:joint.obj
 0001:0001fb50       ?sliderInit@@YAXPAUdxJointSlider@@@Z 00420b50 f   ode:joint.obj
 0001:0001fdd0       ?sliderGetInfo1@@YAXPAUdxJointSlider@@PAUInfo1@dxJoint@@@Z 00420dd0 f   ode:joint.obj
 0001:0001feb0       ?sliderGetInfo2@@YAXPAUdxJointSlider@@PAUInfo2@dxJoint@@@Z 00420eb0 f   ode:joint.obj
 0001:00020760       ?contactInit@@YAXPAUdxJointContact@@@Z 00421760 f   ode:joint.obj
 0001:000207a0       ?contactGetInfo1@@YAXPAUdxJointContact@@PAUInfo1@dxJoint@@@Z 004217a0 f   ode:joint.obj
 0001:00020870       ?contactGetInfo2@@YAXPAUdxJointContact@@PAUInfo2@dxJoint@@@Z 00421870 f   ode:joint.obj
 0001:00020f50       ?hinge2Init@@YAXPAUdxJointHinge2@@@Z 00421f50 f   ode:joint.obj
 0001:00021040       ?hinge2GetInfo1@@YAXPAUdxJointHinge2@@PAUInfo1@dxJoint@@@Z 00422040 f   ode:joint.obj
 0001:00021100       ?measureHinge2Angle@@YANPAUdxJointHinge2@@@Z 00422100 f   ode:joint.obj
 0001:00021200       ?hinge2GetInfo2@@YAXPAUdxJointHinge2@@PAUInfo2@dxJoint@@@Z 00422200 f   ode:joint.obj
 0001:00021480       ?setBall2@@YAXPAUdxJoint@@PAUInfo2@1@QAN22N@Z 00422480 f   ode:joint.obj
 0001:00021b10       ?makeHinge2V1andV2@@YAXPAUdxJointHinge2@@@Z 00422b10 f   ode:joint.obj
 0001:00022690       ?universalInit@@YAXPAUdxJointUniversal@@@Z 00423690 f   ode:joint.obj
 0001:00022730       ?universalGetInfo1@@YAXPAUdxJointUniversal@@PAUInfo1@dxJoint@@@Z 00423730 f   ode:joint.obj
 0001:00022890       ?getUniversalAngle1@@YANPAUdxJointUniversal@@@Z 00423890 f   ode:joint.obj
 0001:00022980       ?getUniversalAxes@@YAXPAUdxJointUniversal@@QAN1@Z 00423980 f   ode:joint.obj
 0001:00022ac0       ?getUniversalAngle2@@YANPAUdxJointUniversal@@@Z 00423ac0 f   ode:joint.obj
 0001:00022bd0       ?universalGetInfo2@@YAXPAUdxJointUniversal@@PAUInfo2@dxJoint@@@Z 00423bd0 f   ode:joint.obj
 0001:00023020       ?universalComputeInitialRelativeRotations@@YAXPAUdxJointUniversal@@@Z 00424020 f   ode:joint.obj
 0001:00023300       ?getAxis2@@YAXPAUdxJoint@@QAN1@Z 00424300 f   ode:joint.obj
 0001:00023600       ?amotorInit@@YAXPAUdxJointAMotor@@@Z 00424600 f   ode:joint.obj
 0001:000236b0       ?amotorGetInfo1@@YAXPAUdxJointAMotor@@PAUInfo1@dxJoint@@@Z 004246b0 f   ode:joint.obj
 0001:00023750       ?amotorComputeGlobalAxes@@YAXPAUdxJointAMotor@@QAY03N@Z 00424750 f   ode:joint.obj
 0001:00023970       ?amotorComputeEulerAngles@@YAXPAUdxJointAMotor@@QAY03N@Z 00424970 f   ode:joint.obj
 0001:00023b60       ?amotorGetInfo2@@YAXPAUdxJointAMotor@@PAUInfo2@dxJoint@@@Z 00424b60 f   ode:joint.obj
 0001:00023dd0       ?amotorSetEulerReferenceVectors@@YAXPAUdxJointAMotor@@@Z 00424dd0 f   ode:joint.obj
 0001:00024210       ?fixedInit@@YAXPAUdxJointFixed@@@Z 00425210 f   ode:joint.obj
 0001:00024230       ?fixedGetInfo1@@YAXPAUdxJointFixed@@PAUInfo1@dxJoint@@@Z 00425230 f   ode:joint.obj
 0001:00024250       ?fixedGetInfo2@@YAXPAUdxJointFixed@@PAUInfo2@dxJoint@@@Z 00425250 f   ode:joint.obj
 0001:00024670       ?nullGetInfo1@@YAXPAUdxJointNull@@PAUInfo1@dxJoint@@@Z 00425670 f   ode:joint.obj
 0001:00024690       ?nullGetInfo2@@YAXPAUdxJointNull@@PAUInfo2@dxJoint@@@Z 00425690 f   ode:joint.obj
 0001:0001d740       ?collideAABBs@@YAXPAUdxGeom@@0PAXP6AX100@Z@Z 0041e740 f   ode:collision_space.obj
 0001:0001ddc0       ?findLevel@@YAHQAN@Z       0041edc0 f   ode:collision_space.obj
 0001:0001de60       ?getVirtualAddress@@YAKHHHH@Z 0041ee60 f   ode:collision_space.obj
 0001:00018df0       ?make_sure_plane_normal_has_unit_length@@YAXPAUdxPlane@@@Z 00419df0 f   ode:collision_std.obj
 0001:0001b170       ?intersectRectQuad@@YAHQAN00@Z 0041c170 f   ode:collision_std.obj
 0001:0001c810       ?ray_sphere_helper@@YAHPAUdxRay@@QANNPAUdContactGeom@@H@Z 0041d810 f   ode:collision_std.obj
 0001:00016890       ?checkWorld@@YAXPAUdxWorld@@@Z 00417890 f   ode:ode.obj
 0001:00016b10       ?listHasLoops@@YAHPAUdObject@@@Z 00417b10 f   ode:ode.obj
 0001:00016d40       ?removeJointReferencesFromAttachedBodies@@YAXPAUdxJoint@@@Z 00417d40 f   ode:ode.obj
 0001:00017ce0       ?createJoint@@YAPAUdxJoint@@PAUdxWorld@@PAUdxJointGroup@@PAUVtable@1@@Z 00418ce0 f   ode:ode.obj
 0001:00017d50       ?dJointInit@@YAXPAUdxWorld@@PAUdxJoint@@@Z 00418d50 f   ode:ode.obj
 0001:00018320       ?processIslands@@YAXPAUdxWorld@@N@Z 00419320 f   ode:ode.obj
 0001:00015fd0       ?initColliders@@YAXXZ      00416fd0 f   ode:collision_kernel.obj
 0001:000160f0       ?dCollideSpaceGeom@@YAHPAUdxGeom@@0HPAUdContactGeom@@H@Z 004170f0 f   ode:collision_kernel.obj
 0001:00016140       ?space_geom_collider@@YAXPAXPAUdxGeom@@1@Z 00417140 f   ode:collision_kernel.obj
 0001:00016180       ?setCollider@@YAXHHP6AHPAUdxGeom@@0HPAUdContactGeom@@H@Z@Z 00417180 f   ode:collision_kernel.obj
 0001:000161e0       ?setAllColliders@@YAXHP6AHPAUdxGeom@@0HPAUdContactGeom@@H@Z@Z 004171e0 f   ode:collision_kernel.obj
 0001:000167a0       ?dCollideUserGeomWithGeom@@YAHPAUdxGeom@@0HPAUdContactGeom@@H@Z 004177a0 f   ode:collision_kernel.obj
 0001:00031c90       ?errorBox@@YAXPAD00@Z      00432c90 f   drawstuff:windows.obj
 0001:00031fe0       ?dsWarning@@YAXPADZZ       00432fe0 f   drawstuff:windows.obj
 0001:00032000       ?setupRendererGlobals@@YAXXZ 00433000 f   drawstuff:windows.obj
 0001:00032040       ?renderingThread@@YGKPAX@Z 00433040 f   drawstuff:windows.obj
 0001:000321d0       ?drawStuffStartup@@YAXXZ   004331d0 f   drawstuff:windows.obj
 0001:00032360       ?mainWndProc@@YGJPAUHWND__@@IIJ@Z 00433360 f   drawstuff:windows.obj
 0001:00032690       ?AboutDlgProc@@YGJPAUHWND__@@IIJ@Z 00433690 f   drawstuff:windows.obj
 0001:000326c0       ?GetConsoleHwnd@@YAPAUHWND__@@XZ 004336c0 f   drawstuff:windows.obj
 0001:0002f2a0       ?skipWhiteSpace@@YAXPADPAU_iobuf@@@Z 004302a0 f   drawstuff:drawstuff.obj
 0001:0002f310       ?readNumber@@YAHPADPAU_iobuf@@@Z 00430310 f   drawstuff:drawstuff.obj
 0001:0002f5c0       ?wrapCameraAngles@@YAXXZ   004305c0 f   drawstuff:drawstuff.obj
 0001:0002fb40       ?setCamera@@YAXMMMMMM@Z    00430b40 f   drawstuff:drawstuff.obj
 0001:0002fbe0       ?setColor@@YAXMMMM@Z       00430be0 f   drawstuff:drawstuff.obj
 0001:0002fcd0       ?drawSky@@YAXQAM@Z         00430cd0 f   drawstuff:drawstuff.obj
 0001:0002fce0       ?drawGround@@YAXXZ         00430ce0 f   drawstuff:drawstuff.obj
 0001:0002fe50       ?drawPyramidGrid@@YAXXZ    00430e50 f   drawstuff:drawstuff.obj
 0001:000301c0       ?initMotionModel@@YAXXZ    004311c0 f   drawstuff:drawstuff.obj
 0001:00030400       ?setTransform@@YAXQBM0@Z   00431400 f   drawstuff:drawstuff.obj
 0001:000304a0       ?setShadowTransform@@YAXXZ 004314a0 f   drawstuff:drawstuff.obj
 0001:000304f0       ?drawBox@@YAXQBM@Z         004314f0 f   drawstuff:drawstuff.obj
 0001:000306a0       ?setupDrawingMode@@YAXXZ   004316a0 f   drawstuff:drawstuff.obj
 0001:000307a0       ?setShadowDrawingMode@@YAXXZ 004317a0 f   drawstuff:drawstuff.obj
 0001:00030a30       ?drawSphere@@YAXXZ         00431a30 f   drawstuff:drawstuff.obj
 0001:00030ac0       ?drawPatch@@YAXQAM00H@Z    00431ac0 f   drawstuff:drawstuff.obj
 0001:00030cb0       ?drawSphereShadow@@YAXMMMM@Z 00431cb0 f   drawstuff:drawstuff.obj
 0001:00030e60       ?drawTriangle@@YAXPBM00H@Z 00431e60 f   drawstuff:drawstuff.obj
 0001:00030f20       ?normalizeVector3@@YAXQAM@Z 00431f20 f   drawstuff:drawstuff.obj
 0001:00031020       ?drawCylinder@@YAXMMM@Z    00432020 f   drawstuff:drawstuff.obj
 0001:00031470       ?drawCappedCylinder@@YAXMM@Z 00432470 f   drawstuff:drawstuff.obj
 0001:0004dfa0       _findenv                   0044efa0 f   LIBCD:setenv.obj
 0001:0004e020       _copy_environ              0044f020 f   LIBCD:setenv.obj
 0001:0004dc70       _strncnt                   0044ec70 f   LIBCD:a_cmp.obj
 0001:0004d7a0       _$$$00001                  0044e7a0 f   LIBCD:strchr.obj
 0001:0004d7c8       str_misaligned             0044e7c8 f   LIBCD:strchr.obj
 0001:0004d7db       main_loop_start            0044e7db f   LIBCD:strchr.obj
 0001:0004d7e6       main_loop                  0044e7e6 f   LIBCD:strchr.obj
 0001:0004d822       retnull                    0044e822 f   LIBCD:strchr.obj
 0001:0004d824       retnull_bx                 0044e824 f   LIBCD:strchr.obj
 0001:0004d828       chr_is_found               0044e828 f   LIBCD:strchr.obj
 0001:0004d850       byte_3                     0044e850 f   LIBCD:strchr.obj
 0001:0004d857       byte_2                     0044e857 f   LIBCD:strchr.obj
 0001:0004d85e       byte_1                     0044e85e f   LIBCD:strchr.obj
 0001:0004d865       byte_0                     0044e865 f   LIBCD:strchr.obj
 0001:0004d7a0       found_bx                   0044e7a0 f   LIBCD:strchr.obj
 0001:0004d791       returndi                   0044e791 f   LIBCD:strrchr.obj
 0001:0004d793       toend                      0044e793 f   LIBCD:strrchr.obj
 0001:0004c580       _getSystemCP               0044d580 f   LIBCD:mbctype.obj
 0001:0004c5e0       _CPtoLCID                  0044d5e0 f   LIBCD:mbctype.obj
 0001:0004c660       _setSBCS                   0044d660 f   LIBCD:mbctype.obj
 0001:0004c6e0       _setSBUpLow                0044d6e0 f   LIBCD:mbctype.obj
 0001:00049fa4       label0                     0044afa4 f   LIBCD:adj_fdiv.obj
 0001:00049faa       label1                     0044afaa f   LIBCD:adj_fdiv.obj
 0001:00049faf       label2                     0044afaf f   LIBCD:adj_fdiv.obj
 0001:00049fb5       label3                     0044afb5 f   LIBCD:adj_fdiv.obj
 0001:00049fba       label4                     0044afba f   LIBCD:adj_fdiv.obj
 0001:00049fc0       label5                     0044afc0 f   LIBCD:adj_fdiv.obj
 0001:00049fc6       label6                     0044afc6 f   LIBCD:adj_fdiv.obj
 0001:00049fcc       label7                     0044afcc f   LIBCD:adj_fdiv.obj
 0001:00049fd2       label8                     0044afd2 f   LIBCD:adj_fdiv.obj
 0001:00049fee       label9                     0044afee f   LIBCD:adj_fdiv.obj
 0001:00049ff3       label10                    0044aff3 f   LIBCD:adj_fdiv.obj
 0001:0004a009       label11                    0044b009 f   LIBCD:adj_fdiv.obj
 0001:0004a00e       label12                    0044b00e f   LIBCD:adj_fdiv.obj
 0001:0004a02a       label13                    0044b02a f   LIBCD:adj_fdiv.obj
 0001:0004a03a       label14                    0044b03a f   LIBCD:adj_fdiv.obj
 0001:0004a04e       label15                    0044b04e f   LIBCD:adj_fdiv.obj
 0001:0004a05e       label16                    0044b05e f   LIBCD:adj_fdiv.obj
 0001:0004a07e       label17                    0044b07e f   LIBCD:adj_fdiv.obj
 0001:0004a083       label18                    0044b083 f   LIBCD:adj_fdiv.obj
 0001:0004a09d       label19                    0044b09d f   LIBCD:adj_fdiv.obj
 0001:0004a0a2       label20                    0044b0a2 f   LIBCD:adj_fdiv.obj
 0001:0004a0c2       label21                    0044b0c2 f   LIBCD:adj_fdiv.obj
 0001:0004a0d6       label22                    0044b0d6 f   LIBCD:adj_fdiv.obj
 0001:0004a0ee       label23                    0044b0ee f   LIBCD:adj_fdiv.obj
 0001:0004a102       label24                    0044b102 f   LIBCD:adj_fdiv.obj
 0001:0004a122       label25                    0044b122 f   LIBCD:adj_fdiv.obj
 0001:0004a127       label26                    0044b127 f   LIBCD:adj_fdiv.obj
 0001:0004a141       label27                    0044b141 f   LIBCD:adj_fdiv.obj
 0001:0004a146       label28                    0044b146 f   LIBCD:adj_fdiv.obj
 0001:0004a166       label29                    0044b166 f   LIBCD:adj_fdiv.obj
 0001:0004a17a       label30                    0044b17a f   LIBCD:adj_fdiv.obj
 0001:0004a192       label31                    0044b192 f   LIBCD:adj_fdiv.obj
 0001:0004a1a6       label32                    0044b1a6 f   LIBCD:adj_fdiv.obj
 0001:0004a1c6       label33                    0044b1c6 f   LIBCD:adj_fdiv.obj
 0001:0004a1cb       label34                    0044b1cb f   LIBCD:adj_fdiv.obj
 0001:0004a1e5       label35                    0044b1e5 f   LIBCD:adj_fdiv.obj
 0001:0004a1ea       label36                    0044b1ea f   LIBCD:adj_fdiv.obj
 0001:0004a20a       label37                    0044b20a f   LIBCD:adj_fdiv.obj
 0001:0004a21e       label38                    0044b21e f   LIBCD:adj_fdiv.obj
 0001:0004a236       label39                    0044b236 f   LIBCD:adj_fdiv.obj
 0001:0004a24a       label40                    0044b24a f   LIBCD:adj_fdiv.obj
 0001:0004a26a       label41                    0044b26a f   LIBCD:adj_fdiv.obj
 0001:0004a26f       label42                    0044b26f f   LIBCD:adj_fdiv.obj
 0001:0004a289       label43                    0044b289 f   LIBCD:adj_fdiv.obj
 0001:0004a28e       label44                    0044b28e f   LIBCD:adj_fdiv.obj
 0001:0004a2ae       label45                    0044b2ae f   LIBCD:adj_fdiv.obj
 0001:0004a2c2       label46                    0044b2c2 f   LIBCD:adj_fdiv.obj
 0001:0004a2da       label47                    0044b2da f   LIBCD:adj_fdiv.obj
 0001:0004a2ee       label48                    0044b2ee f   LIBCD:adj_fdiv.obj
 0001:0004a30e       label49                    0044b30e f   LIBCD:adj_fdiv.obj
 0001:0004a313       label50                    0044b313 f   LIBCD:adj_fdiv.obj
 0001:0004a32d       label51                    0044b32d f   LIBCD:adj_fdiv.obj
 0001:0004a332       label52                    0044b332 f   LIBCD:adj_fdiv.obj
 0001:0004a352       label53                    0044b352 f   LIBCD:adj_fdiv.obj
 0001:0004a366       label54                    0044b366 f   LIBCD:adj_fdiv.obj
 0001:0004a37e       label55                    0044b37e f   LIBCD:adj_fdiv.obj
 0001:0004a392       label56                    0044b392 f   LIBCD:adj_fdiv.obj
 0001:0004a3b2       label57                    0044b3b2 f   LIBCD:adj_fdiv.obj
 0001:0004a3b7       label58                    0044b3b7 f   LIBCD:adj_fdiv.obj
 0001:0004a3d1       label59                    0044b3d1 f   LIBCD:adj_fdiv.obj
 0001:0004a3d6       label60                    0044b3d6 f   LIBCD:adj_fdiv.obj
 0001:0004a3f6       label61                    0044b3f6 f   LIBCD:adj_fdiv.obj
 0001:0004a40a       label62                    0044b40a f   LIBCD:adj_fdiv.obj
 0001:0004a422       label63                    0044b422 f   LIBCD:adj_fdiv.obj
 0001:00049ca1       L1                         0044aca1 f   LIBCD:ullrem.obj
 0001:00049caf       L3                         0044acaf f   LIBCD:ullrem.obj
 0001:00049cda       L4                         0044acda f   LIBCD:ullrem.obj
 0001:00049ce2       L5                         0044ace2 f   LIBCD:ullrem.obj
 0001:00049cf1       L2                         0044acf1 f   LIBCD:ullrem.obj
 0001:00049c32       L1                         0044ac32 f   LIBCD:ulldiv.obj
 0001:00049c40       L3                         0044ac40 f   LIBCD:ulldiv.obj
 0001:00049c6e       L4                         0044ac6e f   LIBCD:ulldiv.obj
 0001:00049c6f       L5                         0044ac6f f   LIBCD:ulldiv.obj
 0001:00049c73       L2                         0044ac73 f   LIBCD:ulldiv.obj
 0001:000489d0       __abstract_cw              004499d0 f   LIBCD:ieee87.obj
 0001:00048b50       __hw_cw                    00449b50 f   LIBCD:ieee87.obj
 0001:00048cb0       __abstract_sw              00449cb0 f   LIBCD:ieee87.obj
 0001:000486b4       src_misaligned             004496b4 f   LIBCD:strncpy.obj
 0001:000486d0       tail_loop_start            004496d0 f   LIBCD:strncpy.obj
 0001:000486d5       copy_tail_loop             004496d5 f   LIBCD:strncpy.obj
 0001:000486e2       fill_tail_end1             004496e2 f   LIBCD:strncpy.obj
 0001:000486ea       align_dest                 004496ea f   LIBCD:strncpy.obj
 0001:000486f2       dest_align_loop            004496f2 f   LIBCD:strncpy.obj
 0001:00048704       dest_align_loop_end        00449704 f   LIBCD:strncpy.obj
 0001:0004870b       finish_loop                0044970b f   LIBCD:strncpy.obj
 0001:0004870e       fill_tail_zero_bytes       0044970e f   LIBCD:strncpy.obj
 0001:00048713       finish                     00449713 f   LIBCD:strncpy.obj
 0001:00048719       main_loop                  00449719 f   LIBCD:strncpy.obj
 0001:00048721       main_loop_entrance         00449721 f   LIBCD:strncpy.obj
 0001:00048757       byte_2                     00449757 f   LIBCD:strncpy.obj
 0001:00048761       byte_1                     00449761 f   LIBCD:strncpy.obj
 0001:0004876b       byte_0                     0044976b f   LIBCD:strncpy.obj
 0001:0004876f       fill_with_EOS_dwords       0044976f f   LIBCD:strncpy.obj
 0001:00048777       fill_dwords_with_EOS       00449777 f   LIBCD:strncpy.obj
 0001:00048779       fill_with_EOS_loop         00449779 f   LIBCD:strncpy.obj
 0001:00048781       fill_tail                  00449781 f   LIBCD:strncpy.obj
 0001:00048786       fill_tail_end              00449786 f   LIBCD:strncpy.obj
 0001:00048330       _xtoa                      00449330 f   LIBCD:xtoa.obj
 0001:000484b0       _x64toa@20                 004494b0 f   LIBCD:xtoa.obj
 0001:00047b90       _strncnt                   00448b90 f   LIBCD:a_map.obj
 0001:00047020       _ctrlevent_capture@4       00448020 f   LIBCD:winsig.obj
 0001:00047250       _siglookup                 00448250 f   LIBCD:winsig.obj
 0001:00044d93       adjust_loop                00445d93 f   LIBCD:memset.obj
 0001:00044d99       dwords                     00445d99 f   LIBCD:memset.obj
 0001:00044db3       main_loop_tail             00445db3 f   LIBCD:memset.obj
 0001:00044db7       tail                       00445db7 f   LIBCD:memset.obj
 0001:00044dbd       finish                     00445dbd f   LIBCD:memset.obj
 0001:00044dc3       toend                      00445dc3 f   LIBCD:memset.obj
 0001:00044270       _parse_cmdline             00445270 f   LIBCD:stdargv.obj
 0001:00043fe0       _xcptlookup                00444fe0 f   LIBCD:winxfltr.obj
 0001:00043a40       _comexecmd                 00444a40 f   LIBCD:spawnve.obj
 0001:00042da0       __get_fname                00443da0 f   LIBCD:fpexcept.obj
 0001:00041d21       fFEXP                      00442d21 f   LIBCD:87tran.obj
 0001:00041e61       _rtforexpinf               00442e61 f   LIBCD:87tran.obj
 0001:000417e0       _write_char                004427e0 f   LIBCD:output.obj
 0001:00041860       _write_multi_char          00442860 f   LIBCD:output.obj
 0001:000418a0       _write_string              004428a0 f   LIBCD:output.obj
 0001:000418f0       _get_int_arg               004428f0 f   LIBCD:output.obj
 0001:00041910       _get_int64_arg             00442910 f   LIBCD:output.obj
 0001:00041930       _get_short_arg             00442930 f   LIBCD:output.obj
 0001:000406e9       hard                       004416e9 f   LIBCD:llmul.obj
 0001:00040510       __cftoe_g                  00441510 f   LIBCD:cvt.obj
 0001:00040550       __cftof_g                  00441550 f   LIBCD:cvt.obj
 0001:000405e0       __shift                    004415e0 f   LIBCD:cvt.obj
 0001:0003f0e0       ?FindHandler@@YAXPAUEHExceptionRecord@@PAUEHRegistrationNode@@PAU_CONTEXT@@PAXPBU_s_FuncInfo@@EH1@Z 004400e0 f   LIBCD:frame.obj
 0001:0003f380       ?FindHandlerForForeignException@@YAXPAUEHExceptionRecord@@PAUEHRegistrationNode@@PAU_CONTEXT@@PAXPBU_s_FuncInfo@@HH1@Z 00440380 f   LIBCD:frame.obj
 0001:0003f4a0       ?TypeMatch@@YAHPBU_s_HandlerType@@PBU_s_CatchableType@@PBU_s_ThrowInfo@@@Z 004404a0 f   LIBCD:frame.obj
 0001:0003f660       ?FrameUnwindFilter@@YAHPAU_EXCEPTION_POINTERS@@@Z 00440660 f   LIBCD:frame.obj
 0001:0003f690       ?CatchIt@@YAXPAUEHExceptionRecord@@PAUEHRegistrationNode@@PAU_CONTEXT@@PAXPBU_s_FuncInfo@@PBU_s_HandlerType@@PBU_s_CatchableType@@PBU_s_TryBlockMapEntry@@H1E@Z 00440690 f   LIBCD:frame.obj
 0001:0003f750       ?CallCatchBlock@@YAPAXPAUEHExceptionRecord@@PAUEHRegistrationNode@@PAU_CONTEXT@@PBU_s_FuncInfo@@PAXHK@Z 00440750 f   LIBCD:frame.obj
 0001:0003f8a0       ?ExFilterRethrow@@YAHPAU_EXCEPTION_POINTERS@@@Z 004408a0 f   LIBCD:frame.obj
 0001:0003f8f0       ?BuildCatchObject@@YAXPAUEHExceptionRecord@@PAUEHRegistrationNode@@PBU_s_HandlerType@@PBU_s_CatchableType@@@Z 004408f0 f   LIBCD:frame.obj
 0001:0003fc00       ?AdjustPointer@@YAPAXPAXABUPMD@@@Z 00440c00 f   LIBCD:frame.obj
 0001:0003ece0       _CrtMessageWindow          0043fce0 f   LIBCD:dbgrpt.obj
 0001:0003e570       LeadUp1                    0043f570 f   LIBCD:memcpy.obj
 0001:0003e59c       LeadUp2                    0043f59c f   LIBCD:memcpy.obj
 0001:0003e5c0       LeadUp3                    0043f5c0 f   LIBCD:memcpy.obj
 0001:0003e63f       UnwindUp0                  0043f63f f   LIBCD:memcpy.obj
 0001:0003e62c       UnwindUp1                  0043f62c f   LIBCD:memcpy.obj
 0001:0003e624       UnwindUp2                  0043f624 f   LIBCD:memcpy.obj
 0001:0003e61c       UnwindUp3                  0043f61c f   LIBCD:memcpy.obj
 0001:0003e614       UnwindUp4                  0043f614 f   LIBCD:memcpy.obj
 0001:0003e60c       UnwindUp5                  0043f60c f   LIBCD:memcpy.obj
 0001:0003e604       UnwindUp6                  0043f604 f   LIBCD:memcpy.obj
 0001:0003e5fc       UnwindUp7                  0043f5fc f   LIBCD:memcpy.obj
 0001:0003e658       TrailUp0                   0043f658 f   LIBCD:memcpy.obj
 0001:0003e660       TrailUp1                   0043f660 f   LIBCD:memcpy.obj
 0001:0003e66c       TrailUp2                   0043f66c f   LIBCD:memcpy.obj
 0001:0003e680       TrailUp3                   0043f680 f   LIBCD:memcpy.obj
 0001:0003e6f8       LeadDown1                  0043f6f8 f   LIBCD:memcpy.obj
 0001:0003e718       LeadDown2                  0043f718 f   LIBCD:memcpy.obj
 0001:0003e740       LeadDown3                  0043f740 f   LIBCD:memcpy.obj
 0001:0003e794       UnwindDown7                0043f794 f   LIBCD:memcpy.obj
 0001:0003e79c       UnwindDown6                0043f79c f   LIBCD:memcpy.obj
 0001:0003e7a4       UnwindDown5                0043f7a4 f   LIBCD:memcpy.obj
 0001:0003e7ac       UnwindDown4                0043f7ac f   LIBCD:memcpy.obj
 0001:0003e7b4       UnwindDown3                0043f7b4 f   LIBCD:memcpy.obj
 0001:0003e7bc       UnwindDown2                0043f7bc f   LIBCD:memcpy.obj
 0001:0003e7c4       UnwindDown1                0043f7c4 f   LIBCD:memcpy.obj
 0001:0003e7d7       UnwindDown0                0043f7d7 f   LIBCD:memcpy.obj
 0001:0003e7f0       TrailDown0                 0043f7f0 f   LIBCD:memcpy.obj
 0001:0003e7f8       TrailDown1                 0043f7f8 f   LIBCD:memcpy.obj
 0001:0003e808       TrailDown2                 0043f808 f   LIBCD:memcpy.obj
 0001:0003e81c       TrailDown3                 0043f81c f   LIBCD:memcpy.obj
 0001:0003e520       CopyUp                     0043f520 f   LIBCD:memcpy.obj
 0001:0003e53c       CopyLeadUp                 0043f53c f   LIBCD:memcpy.obj
 0001:0003e554       ByteCopyUp                 0043f554 f   LIBCD:memcpy.obj
 0001:0003e55c       CopyUnwindUp               0043f55c f   LIBCD:memcpy.obj
 0001:0003e698       CopyDown                   0043f698 f   LIBCD:memcpy.obj
 0001:0003e6c0       CopyUnwindDown             0043f6c0 f   LIBCD:memcpy.obj
 0001:0003e6cc       CopyLeadDown               0043f6cc f   LIBCD:memcpy.obj
 0001:0003e6e4       ByteCopyDown               0043f6e4 f   LIBCD:memcpy.obj
 0001:0003cf5c       str_misaligned             0043df5c f   LIBCD:strlen.obj
 0001:0003cf70       main_loop                  0043df70 f   LIBCD:strlen.obj
 0001:0003cfa3       byte_3                     0043dfa3 f   LIBCD:strlen.obj
 0001:0003cfad       byte_2                     0043dfad f   LIBCD:strlen.obj
 0001:0003cfb7       byte_1                     0043dfb7 f   LIBCD:strlen.obj
 0001:0003cfc1       byte_0                     0043dfc1 f   LIBCD:strlen.obj
 0001:0003c6d0       _strtoxl                   0043d6d0 f   LIBCD:strtol.obj
 0001:0003b720       _flsall                    0043c720 f   LIBCD:fflush.obj
 0001:000398b0       _realloc_help              0043a8b0 f   LIBCD:dbgheap.obj
 0001:0003a470       _CheckBytes                0043b470 f   LIBCD:dbgheap.obj
 0001:0003b000       __printMemBlockData        0043c000 f   LIBCD:dbgheap.obj
 0001:00039110       LeadUp1                    0043a110 f   LIBCD:memmove.obj
 0001:0003913c       LeadUp2                    0043a13c f   LIBCD:memmove.obj
 0001:00039160       LeadUp3                    0043a160 f   LIBCD:memmove.obj
 0001:000391df       UnwindUp0                  0043a1df f   LIBCD:memmove.obj
 0001:000391cc       UnwindUp1                  0043a1cc f   LIBCD:memmove.obj
 0001:000391c4       UnwindUp2                  0043a1c4 f   LIBCD:memmove.obj
 0001:000391bc       UnwindUp3                  0043a1bc f   LIBCD:memmove.obj
 0001:000391b4       UnwindUp4                  0043a1b4 f   LIBCD:memmove.obj
 0001:000391ac       UnwindUp5                  0043a1ac f   LIBCD:memmove.obj
 0001:000391a4       UnwindUp6                  0043a1a4 f   LIBCD:memmove.obj
 0001:0003919c       UnwindUp7                  0043a19c f   LIBCD:memmove.obj
 0001:000391f8       TrailUp0                   0043a1f8 f   LIBCD:memmove.obj
 0001:00039200       TrailUp1                   0043a200 f   LIBCD:memmove.obj
 0001:0003920c       TrailUp2                   0043a20c f   LIBCD:memmove.obj
 0001:00039220       TrailUp3                   0043a220 f   LIBCD:memmove.obj
 0001:00039298       LeadDown1                  0043a298 f   LIBCD:memmove.obj
 0001:000392b8       LeadDown2                  0043a2b8 f   LIBCD:memmove.obj
 0001:000392e0       LeadDown3                  0043a2e0 f   LIBCD:memmove.obj
 0001:00039334       UnwindDown7                0043a334 f   LIBCD:memmove.obj
 0001:0003933c       UnwindDown6                0043a33c f   LIBCD:memmove.obj
 0001:00039344       UnwindDown5                0043a344 f   LIBCD:memmove.obj
 0001:0003934c       UnwindDown4                0043a34c f   LIBCD:memmove.obj
 0001:00039354       UnwindDown3                0043a354 f   LIBCD:memmove.obj
 0001:0003935c       UnwindDown2                0043a35c f   LIBCD:memmove.obj
 0001:00039364       UnwindDown1                0043a364 f   LIBCD:memmove.obj
 0001:00039377       UnwindDown0                0043a377 f   LIBCD:memmove.obj
 0001:00039390       TrailDown0                 0043a390 f   LIBCD:memmove.obj
 0001:00039398       TrailDown1                 0043a398 f   LIBCD:memmove.obj
 0001:000393a8       TrailDown2                 0043a3a8 f   LIBCD:memmove.obj
 0001:000393bc       TrailDown3                 0043a3bc f   LIBCD:memmove.obj
 0001:000390c0       CopyUp                     0043a0c0 f   LIBCD:memmove.obj
 0001:000390dc       CopyLeadUp                 0043a0dc f   LIBCD:memmove.obj
 0001:000390f4       ByteCopyUp                 0043a0f4 f   LIBCD:memmove.obj
 0001:000390fc       CopyUnwindUp               0043a0fc f   LIBCD:memmove.obj
 0001:00039238       CopyDown                   0043a238 f   LIBCD:memmove.obj
 0001:00039260       CopyUnwindDown             0043a260 f   LIBCD:memmove.obj
 0001:0003926c       CopyLeadDown               0043a26c f   LIBCD:memmove.obj
 0001:00039284       ByteCopyDown               0043a284 f   LIBCD:memmove.obj
 0001:00038b70       _$$$00001                  00439b70 f   LIBCD:chkstk.obj
 0001:00038b7c       probepages                 00439b7c f   LIBCD:chkstk.obj
 0001:00038b90       lastpage                   00439b90 f   LIBCD:chkstk.obj
 0001:00038b30       _fast_error_exit           00439b30 f   LIBCD:crt0.obj
 0001:000382dd       dest_misaligned            004392dd f   LIBCD:strcat.obj
 0001:000382ec       find_end_of_dest_string_loop 004392ec f   LIBCD:strcat.obj
 0001:0003831f       start_byte_3               0043931f f   LIBCD:strcat.obj
 0001:00038324       start_byte_2               00439324 f   LIBCD:strcat.obj
 0001:00038329       start_byte_1               00439329 f   LIBCD:strcat.obj
 0001:0003832e       start_byte_0               0043932e f   LIBCD:strcat.obj
 0001:0003833d       src_misaligned             0043933d f   LIBCD:strcat.obj
 0001:00038351       main_loop                  00439351 f   LIBCD:strcat.obj
 0001:00038356       main_loop_entrance         00439356 f   LIBCD:strcat.obj
 0001:0003838a       byte_3                     0043938a f   LIBCD:strcat.obj
 0001:00038392       byte_2                     00439392 f   LIBCD:strcat.obj
 0001:0003839f       byte_1                     0043939f f   LIBCD:strcat.obj
 0001:000383a8       byte_0                     004393a8 f   LIBCD:strcat.obj
 0001:00038331       copy_start                 00439331 f   LIBCD:strcat.obj
 0001:00037e60       dodwords                   00438e60 f   LIBCD:strcmp.obj
 0001:00037e90       doneeq                     00438e90 f   LIBCD:strcmp.obj
 0001:00037e94       donene                     00438e94 f   LIBCD:strcmp.obj
 0001:00037e9c       dopartial                  00438e9c f   LIBCD:strcmp.obj
 0001:00037eb8       doword                     00438eb8 f   LIBCD:strcmp.obj
 0001:00037990       _doexit                    00438990 f   LIBCD:crt0dat.obj
 0001:00037a70       __initterm                 00438a70 f   LIBCD:crt0dat.obj
 0001:000375a0       _gu_return                 004385a0 f   LIBCD:exsup.obj
 0001:000375a8       __unwind_handler           004385a8 f   LIBCD:exsup.obj
 0001:00037270       ?CatchGuardHandler@@YA?AW4_EXCEPTION_DISPOSITION@@PAUEHExceptionRecord@@PAUCatchGuardRN@@PAX2@Z 00438270 f   LIBCD:trnsctrl.obj
 0001:00037380       ?TranslatorGuardHandler@@YA?AW4_EXCEPTION_DISPOSITION@@PAUEHExceptionRecord@@PAUTranslatorGuardRN@@PAX2@Z 00438380 f   LIBCD:trnsctrl.obj

FIXUPS: 38a07 12 13 19 fffffc55 85 69 33 8c 34 fffffd21 ffffffd6 ffffff35
FIXUPS: 384ac a fffffca2 60 33 63 4f 131 19 4d 4a fffffc2c ffffffc3 1f
FIXUPS: 390d6 14 60 7 14 7 fffffd7b 12 18 16 10 1c 31 10 fffffe62 19 18
FIXUPS: 38e3b fffffe86 35 18 a6 10 fffffcfc 82 2a fffffd81 12 1d 20 1e
FIXUPS: 3897a d0e fffffeaf 12 2a 10 1b 2a 10 fffffe84 2a 45 4b fffffeb2
FIXUPS: 39407 d fffffdbd 2b 28 16 1d 29 25 fffffd19 14 1b 25 14 10 d 10
FIXUPS: 3905e 3d a72 9 27 9 fffffe30 a ffffff27 12 14 24 10 2a 2a 10 fffffea2
FIXUPS: 39819 26 10 5 35 10 fffffe66 26 32 3a 5a fffffdfc 12 2a 10 1b 2a
FIXUPS: 39dd0 1c 5e 25 28 31 43 28 31 16 14 fffffc24 2e 28 1e 2c 12 21
FIXUPS: 39ca5 25 fffffe9c fffffee9 e f 10 a 5 5 25 f 17 10 2329 20 31 28
FIXUPS: 3bedc 3a 31 18 45 18 1f 8c 69 2a 34 39 16 7c 2a 28 ffffdd66 34
FIXUPS: 3a021 18 29 16 14 fffffc65 2b 28 2c 3a 14bc 1c 18 1f 62 51 60 5a
FIXUPS: 3b4d2 55 51 2b 28 28 28 a0 2b 32 2b 39 20 49 33 142 17 1c 4c 58
FIXUPS: 3bae2 fd 76 11e ffffed62 66 25 25 b3 19 59 5f 54 85 29 1f 2a 1c
FIXUPS: 3aec0 1d 1f 62 34 3b 2b 3b 45 2b c 41 6b 56 36 c 2b 1c 10ca 4b
FIXUPS: 3a3f4 26 28 23 20 29 2f 1c 69 28 5f 54 21 128 1e 1b 33 2f 51 29
FIXUPS: 3a8d7 21 1b 1c 6b 28 32 4f 18 1f 21d0 37 1d 2b 13 b7 fffff869 e
FIXUPS: 3c632 76 6e 7d 41 fffffd92 2a 1e 17 13 fffffed8 2a 1e 17 13 ffffff54
FIXUPS: 3c480 a ffffff12 2a 44 4b fffffe41 2a 10d6 14 22 22 fffffe72 50
FIXUPS: 3d2d8 fffffe46 5f fffffe52 7a 6a fffffde9 27 f f 27 fffff968 21
FIXUPS: 3c8bc 28 1e 2c 38 16 22 23 ac 4e 23 125 1c 1225 65 60 fffffb38
FIXUPS: 3da5b 13 28 30 30 fffffbcc 48 141 52 35 140 fffffb8e 2e 2a 2a 2e
FIXUPS: 3d68d fffffe9a 18 17 13 fffffebd 2a 45 4a fffffe31 2e 2a 1a48 3f
FIXUPS: 3edfc fffffc3c 13 dd 23f fffffc1a 59 fffffc70 2a3 fffff9c7 1ae
FIXUPS: 3e180 1b c 10 29 2a ffffff1c fffffeff a7 fffffaab 4d 40 40 43 4d
FIXUPS: 3dd14 43 50 50 1d82 18 7a 63 34 47 1e d 2f 15 11 1d 21 14 26 19d
FIXUPS: 3ff96 19 19 a ffffef32 2a0 5a 34 37 60 21 20 1d 11 15 15 163c f
FIXUPS: 409cc 12 1e 26 f 1c 12 21 d a 13 16 13 28 14 15 14 7 17 6b 20 ffffed78
FIXUPS: 3fa64 2a 18 38 16 2b 14 2e 5ad 6a 15 31 51 ba 3c 27 37 a 3f 25
FIXUPS: 40483 65 ce 36 12 38 4c 31 16 f 17 37 19 92 18 20 62 a f3 12 72b
FIXUPS: 410fc 14 32 64 140 2a 34 35 6b 12 29 43 5a 3d 33 3c 38 1c 1a 18
FIXUPS: 41605 fffff895 ffffff54 ffffff1d 38 78 fffffeb4 22 fffff37a 32
FIXUPS: 400cf 20fd ba 31 1e 2a 1b 11d 25 122 1e 30 75 32 22 26 170 55 53
FIXUPS: 418b0 21 7e c8 33 49 fffffdab 2b fffffec5 37 ffffff44 fffff815
FIXUPS: 40ee6 19f 2cbc c fffff38a c8 1d 27 fffffb6d 12 1d 5 55 3c 7 2f
FIXUPS: 42efd 15 fffffd38 5e 7 fffffead fffff04a 34 24 cb 67 133 18 21
FIXUPS: 41ed0 30 a8 e2 21de fffffc92 1c3 17 fffff167 1d 53 1d 2b 2c c 3a
FIXUPS: 43373 11 2f 44 c 3e e 11 182 1d8 1ac 2b 33 1b6 f4 27 36 44 c 10
FIXUPS: 44a9c fffffaeb 2e 2a 2c 30 24 20 11 1f 23 27 23 16 1e c e 1a 1f
FIXUPS: 447c3 13 1c 1b 1f fffffad4 108 10 3e 54 4b 28 fffffd15 9ca 3d 49
FIXUPS: 44db4 31 fffffd59 29 19 2c ffffff23 fffffd84 11 1d 21 c 22 10 34
FIXUPS: 4492b 1d 20 c 21 c 37 e 1d 15 16 2d 22 11 1178 1d 14 13 14 1a 19
FIXUPS: 45a0f d 11 2f 25 fffffe6c fffffea7 4a 94 2b fffff903 56 1e 13 22
FIXUPS: 45050 36 28 1f 29 26 17 12 1c fffffcda 32cb 35 ffffe777 191 19
FIXUPS: 4783c ffffe940 58 ffffff5d 19 fffffe17 17 24 2c 18 3f 10 70 10
FIXUPS: 46104 fffffdd1 2f fffffeda 2b 29 32 fffffc50 1c 77 3a 59 15 3863
FIXUPS: 4949d 5d 17 b5 fffffab3 73 1c 1f 49 11 71 5f 1d c 47 fffffa63 2bf
FIXUPS: 49010 2f fffff8d6 98 f6 fffffd5c fffffc37 2a 2a 227 fffffccc 3a
FIXUPS: 48311 fffffc73 2385 13 2a 3a 10 13 16 26 1e 41 93 20 68 82 10 30
FIXUPS: 4a62b 30 10 fffff74a a7 fffffa75 21 21 24 2a 23 fffffe36 14 fffffb30
FIXUPS: 49316 11b 38ee 15 15 fffffc5d fffffe19 fffff72b 14d eb 1c8 8c 152
FIXUPS: 4c535 238 13 ffffe611 72 13 24 17 fffffc46 1d fffffec2 fffffe19
FIXUPS: 4a7b8 ffffffa0 17 fffff815 41 8c 14 26f 19 2fc6 111 43 107 4a 12
FIXUPS: 4d56f 25e 35 35 1e8 fffff801 43 ffffff4b fffffc3d 2f 64 40 2e 8d
FIXUPS: 4cfab 1d 58 1d 24 1d 51 2e 1d 41 fffff9c1 6e 1d94 d9 13f 9e fffff8e4
FIXUPS: 4e528 4f 1df fffff71c 43 33 24 bd 2d 9b 32 43 c 10 c fffff969 21
FIXUPS: 4daed 35 13a c 10 c 27 6c fffff574 23 fffe736b 52 1e 1b16c b fffe4edf
FIXUPS: 339a6 14 e 80 2c 14 1b24c 45 29 3a 40 3e 33 4b 59 5a c 19 42 3c
FIXUPS: 4f075 19 28 c 21 fffff822 fffe581a 8e 5b 28 3f 20 18 b 33 15 1b
FIXUPS: 3433c 11 20 5f 15 25 54 11 2b 17 2e b 1b 1a 50 1a 1b240 b fffe4dfe
FIXUPS: 345e4 2a fffff566 2a b 52 36 1bb14 b fffe457b 34 13 1ba63 b fffe465c
FIXUPS: 33df2 16 42 26 f 14 14 1b8ed b fffe47a5 56 36 19 11 27 44 14 44
FIXUPS: 340cd b4f 16 16 42 26 f 14 14 1ab8d b fffe54bc 1a 1ab50 b fffe54ee
FIXUPS: 34db4 2a b 52 1e 1aa7c b fffe55cf 1f f 92 4a 72 44 72 ffffea05
FIXUPS: 33b5e 17c8 56 8 fffff380 47 2d 11 a3 33 39 14 1f 15 8 2c 14 5d
FIXUPS: 34999 3d 48 16 2a b 52 36 1ad34 b fffe532b 34 13 1acb3 b 167 b
FIXUPS: 3576b 20 27 24 2b 1a1f4 13 f b fffe5e1d 1e 14 37 c 17 7 3d 7 29
FIXUPS: 3595b 1b 7 27 19 7 38 fffff7ad 69 79 7c d55 fffff37f 20 1b 24 2b
FIXUPS: 4f905 13 f b fffe5b66 26 16 57 20 1b 24 2b 17 7 1a382 13 f b fffe5cb3
FIXUPS: 3567b 20 1f 24 2d 1a29a 13 fffe6382 24 2d 19d5a 13 f b fffe62d9
FIXUPS: 35e0b 27 24 2b 19cb4 13 f b fffe635d 1e 14 37 c 17 7 1d 7 29 1c
FIXUPS: 35fd6 7 27 19 7 863 1e a 15 8 fffff17f 20 1b 24 2b 19f70 13 f b
FIXUPS: 35b0e 16 2a b 52 20 1b 24 2b 17 7 19e42 13 f b fffe61f3 46 20 621
FIXUPS: 3643d c 13 15 15 16 1e 9 d 19 c 9 9 8 d8 1e 49 10 15 d 22 f c 6
FIXUPS: 366da 8 3c 16 5d 1b cf a2 12 11 10 fffff72b 40 13 1d 55 20 19a14
FIXUPS: 4fb7f fffe6651 11 a f 1999a b fffe669b 1a 16 16 2c 15 15 c 9 9
FIXUPS: 36302 c a 10 ff7 c 6c a 17 a fffffc2f 1c 2b bc 14 7b 62 fffff936
FIXUPS: 36b2e ce 91 8e e e 11 e 11 11a 84 20 1a fffffa5e c0 13 8 fffffe91
FIXUPS: 37d93 a e 9 9 b fffff685 17 c 17 1c 1a 8 19d 21 12 c 1a 1c 1a 2a
FIXUPS: 37723 c 39 32 e fffffaba c a 26 10 67 ffffb65d e2 56 6c 68 60 58
FIXUPS: 37e2b 1c 24 b0 4b 90 fffff865 13 e8 24 1ad a f a 25 a 52 80 2f
FIXUPS: 37cb9 83 a 10 25 c ffff9c12 77 80 16a 11 15 15 1da 8 1a 19 8e b7
FIXUPS: 31f9b 1a 11 19 5 7 d 1fb 64 c4 64 60 c 1a f 19 5 7 b ffffe61c 1e
FIXUPS: 30a86 5 59 248 1e3 145 133 8 15 6b 4a 16 60 30 40 40 c 1a a 19
FIXUPS: 313cd 7 6 2fe 87 72 13b 8 25 23 ffffe90c 13 9 28 13 10 13 18 21
FIXUPS: 30347 a 14 12 13 76 7d 6 12a ac 52 f 62 f 62 f 42 6 14 6 14 6 44
FIXUPS: 3323f 17 11 17 11 8 8f 25 f7 bb 40 3f 12 1a3 9 ffffca36 14 9 e
FIXUPS: 301ae b 7 9 7 a 7 1d 17 9 13 f 12 fffe747b 85 27 b ac 23 13 1b41a
FIXUPS: 32c8a 1c 3a 8 13 1f 5 5e 51 33 94 1e 54 88 28 39 6a 20 32 1c 5c
FIXUPS: 331ac 6b 17 fffe3e76 e e 11 c 44 41 8f 23 f 20 1e a c4 1b 11 1d
FIXUPS: 173a4 47 3d 2a 1a 27 13 6 41 44 f9 1e 2c f 40 1f2d 1a 19 12 d 15
FIXUPS: 1966e 6 c 12 14 6 3d 16 1a 6 ffffd80c 36 11 9 1f 20 4c 1d e e e
FIXUPS: 1705b e 11 e e 1e8f 22 f 8 2b 12 1a 26 43 27 125 2a 1a 4c 34 e
FIXUPS: 1924d c3 36 1e 47 cd ca 8 20 13 18 12 12 d 14 e ffffe6e4 33 34
FIXUPS: 17e00 6 2e a 5f 10 6 6f d 10 6 111 d b4c 121 26 11 10 a9 20 22
FIXUPS: 18e30 20 20 20 20 1d 35 12 4aa3 71d 70 ffff9742 16 13 c 13 25 2b
FIXUPS: 17949 25 55 21 49 45 1c 30 36 65 14 4f e 46 e 1c e e e e e 43 22e1
FIXUPS: 1a02b 29 f d0 1d 1d 4a 22 b 103 a 1a 20 1b 15 20 155d 51f 2ba 27b
FIXUPS: 1c6dc 110 7ea b9 21 272 88 b4 10f 2c 26a 16f6 26 17 14 b 35 b ffffa7d6
FIXUPS: 19794 f 50 1d 1d 6e 49 12 d0 31 32 122 39 f 90 27 31 110 51 a8
FIXUPS: 19e96 80 3b 4d 43bf 12 d f8 106 48 57 1b 12 ba 138 41 3b 12 f6
FIXUPS: 1e9d2 39 23 8 54 5e 5a 14 bf 97 ad 33 af 5d 1e 13 1d 55af 17 9
FIXUPS: 244e7 11 8c 14 a5 d 3a e 44 b 2b 14c 16b 54 162 100 139 11 227
FIXUPS: 25009 19f 48 2b 24e 22f ffff8c35 37 12 37 5c61 18 47 6 35 49 12
FIXUPS: 240bd 49 12 21 5b 9 2f 9 3c 9 32 9 20 13 1d 13 20 13 da 16 44 1b
FIXUPS: 24465 11 16 fffff21c b 1b 22 e 11 e f8 a 20 26 52 49 15 1b 1c 11
FIXUPS: 23ae7 49 15 22 19 1b 14 92 18 18 be 11 11 f2 8c ffffe08f b b 19
FIXUPS: 21fc3 17 21 e 8c 1c 2a1 25 ca 18 52 652 6 1eb 15a 1ad 73 1b0 47
FIXUPS: 232a2 23 13 1d 13 15d 31 17 1f0 ffffd010 6 34 79 6 5b 144 13 1d
FIXUPS: 20948 17 ab 16 2c 111 18 b 11 2b8 21a 29c 13 1c 24e 43 27 129 2b
FIXUPS: 21750 2b e 49b ffffda85 54 2a 1e5 b 1a7 10e 179 13 1ad 13 15 b
FIXUPS: 1ff43 1b 1b 11 98 1c 43 14 1e 12 ec 15 15 bf 126 21 18e 17 eb 5167
FIXUPS: 2597a 42 1b 40 c0 10 44 1c 93 1d c0 78 1c0 9c 16 19 19 19 131 e
FIXUPS: 26139 15 6f e e 12 15 12 ffff93e7 3f 32 819a 13 298 74 19 1d 9d
FIXUPS: 27c51 18 27 6d ffffef9e 23 c 1a 12 3e 1e 1a 1f2 3b 4d 13 fffff3b8
FIXUPS: 263c0 249 14 fffff09c b 13 a9 3f 2a3c 85 83 fffffc90 1f 26 4b 1f
FIXUPS: 28066 3d 13 a 20 19 17 f a fffffd31 3f 36 fffff4ad 12d 16e 30 13
FIXUPS: 27678 46 7b 22 5e c 9 2c8b 10 23c 14 e2 9d 41 56 17 10e 14 59 3c
FIXUPS: 2aaf4 1b 29 6a ee d9 2d 30e 2e 40 30 d 10 6 48f ffffceac 28 12
FIXUPS: 28514 fea 37 34 39 1e 243 2e 40 30 d 10 6 113 35 13 1a 7 6bb 1a
FIXUPS: 2a22e 17 1e 15 15 15 1d d 15 18 14 26 18 ffffec95 16 14 7 fd 14
FIXUPS: 29145 16 16 15 1d a 12 18 18 34 11 115 11 14 31 14 11 3f e 12 34
FIXUPS: 29465 12 34 1b 26 5e56 1d f c 33 33 28 f1 32 24 ffffc109 c c c
FIXUPS: 2b688 2c 21 f 80 14 37 49 23 ffffce68 38 14 16 a 69e 1a 110 13
FIXUPS: 2ec69 2f5 64 46 51 1f d e 3f d 13 14 11 13 13 13 14 13 13 13 13
FIXUPS: 2f1e7 11 11 14 11 6a 2c 2a 31 b c fffff266 d c 11 19e 18 1d 2d
FIXUPS: 2e7e2 d b 4c 10 22 24 16 f 15 16 f 19 f 16 f 70 143 29 ae c 50
FIXUPS: 2ec3e 11 ffffedf4 d 70 49 1a7 ed 67 a4 78 67 6a 52 3f 44 11a 81
FIXUPS: 2e2e7 d7 16 f 13 13 f f 1b 17 17 17 67 47 3c 11 fffd575b 37 1a
FIXUPS: 3d65 29 d 73 f 2bde4 f0 13 126 17 13 b a2 d9 44 e 2c 3f 39 b 39
FIXUPS: 3011f 24 b fffff47e 2b8 ffffe072 b2 68 fffd5c2f d 14b 2f 1b ae
FIXUPS: 38ff 10 37 22 d 31 22 d 5c 22 d 36 22 d 31 d b6 41 37 c 8 c 8 8
FIXUPS: 3c69 d fffff547 f 5b f 3b e 11 44 13 14 e 19 1c 9 1f 2b 15 42 46
FIXUPS: 346d 4be98 c fffb41a7 45 3f 4bde9 c fffb42b7 7 21 7 21 fffff51d
FIXUPS: 2ba0 19 25 82 c6 17 16 2d 3c f 1e 38 2b 30 12 17 4c440 c fffb3bef
FIXUPS: 2eed 5a 19 25 82 62 3a 54 f 81 15 9 fffff208 96 4a 92 f 73 8 21
FIXUPS: 266f f 89 f 7a f 5c f 6c 30 30 f 56 f 5d f 48 28 43 2d 4c82f c
FIXUPS: 2b2a 1c ffffef79 14 d 5f e 32 f 5d 30 f 4e c 1f 16 10 5e 2b 17
FIXUPS: 1d76 61 28 17 30 91 71 d5 37 61 2e 7c 2e 1d6 4cf54 fffb225a 50
FIXUPS: 1597 4c 27 13 d 25 25 12 1f 2c 26 2a 13 13 3a 13 13 3a 13 13 3a
FIXUPS: 1854 13 54 3e 26 fc f 65 47de 49178 c fffb6ee9 29 2f d c7 1a ffffac66
FIXUPS: 108e 7 2d 3c 4e177 c fffb1f57 4e 72 1e 16 1b 49 3a 69 2d 4a 35
FIXUPS: 149c 4ddf9 b b fffb6a94 d d d d d d d 4a 19 f 1f 4959a b c fffb6abf
FIXUPS: 5eaa 48 1b 12 42 31 3c 3c 39 2b 7e 1c 2e c5 a 29 fffff84c 16 19
FIXUPS: 5ac1 19 24 24 16 10 15 9 1c 16 9 1f 16 9 1c 29 15 a 29 3a 24 d
FIXUPS: 5ce4 d d d d d d fffffa8d 9 1c 17 1b e 35 16 9 1f 16 9 1f 16 9
FIXUPS: 5916 16 9 1c 16 9 1c 16 9 1c 16 10 1a 13 16 19 18 fffff98a 10 27
FIXUPS: 543b b d 5b 25 30 1a 34 13 13 45 f 10 66 c f f 10 58 e 25 e 19
FIXUPS: 5743 9 1c 16 9 22 fffff6fc 89 40 93 2c d 3d d 62 14 3c 14 3c 14
FIXUPS: 51ed 16 20 13 1b 3f 17 4a0de c fffb5f57 16 4a 29 2e 17 49fef c
FIXUPS: 53de fffff591 f 5e 28 27 28 2f 19 e 24 1a e 11 2d 23 11 d 103 f
FIXUPS: 4cc0 17 8 d 5b f 51 f 42 d 42 b 48 fffff509 30 1a 54 23 53 30 f
FIXUPS: 4555 1e 2e 1d 1c 1b 13 a d 92 c 37 f 5c f 7c f 54 d 13 25 d 58
FIXUPS: 4906 fffff666 18 11 28 32 8 d 2d 13 13 3a 13 13 42 14 2a 31 d 4f
FIXUPS: 41ce 2b 2e 44 4b0da c fffb4f6d 20 e 39 4b040 c fffb500d 45db f
FIXUPS: 89df b 1d 69 25 25 4b 39 1e 8 27 4691a c fffb9736 31 61 13 23 17
FIXUPS: 8cd5 73 16 11 61 27 ffffb06e 10 3b 3e 4e 46e5 46e67 c fffb91d4
FIXUPS: 866f 7 7 4e e 7 f f 46 7 7 7 32 e 7 f d 4a 7 7 7 4c e 7 f f 58
FIXUPS: 8901 fffff724 25 50 11 21 1c 15 21 2a 4731d c fffb8daa 11 63 f
FIXUPS: 8303 18 65 18 68 5 b 18 6c 18 4f 33 3a 8 52 33 f fffff47a 2b 11
FIXUPS: 7aff 1a 14 1c d 82 f 49 19 73 f 47 19 5b f 51 1c f 56 1c f 8a 16
FIXUPS: 7f43 5a 13 8 6 1d fffff54a 23 4b 14 1c 47e62 c fffb81d4 24 4c 14
FIXUPS: 76a5 47da0 c fffb82a1 2e 9 f 2b 2d f 64 1a 15 61 1a 15 59 23 73
FIXUPS: 7a06 67 fffff59b 77 d 5 2a 19 1c 2a 58 2c 9 f 5d 13 2d 52 16 f
FIXUPS: 7326 16 f 3e 21 19 d 40 17 9 d 43 d d fffff675 64 5 1f b 20 40
FIXUPS: 6c18 5 12 5 17 5 26 d 6c 37 6c 16 11 4c 25 63 5 b 1e 4854a c fffb7b1e
FIXUPS: 6f63 7e 16 fffff548 14 51 58 16 14 2f f 15 54 18 14 42 1a 37 d
FIXUPS: 683e 13 e 3c a4 13 e 34 35 21 7b 19 e 28 35 19 589c 50 d d d d
FIXUPS: c42f d d d d d d d d d d d d 4a 1c c 68 b4 b4 6b 42d50 c fffb6f9b
FIXUPS: 6486 10 49 5b88 1f 13 9 2b 20 9 2b 13 9 2b 3e 24 19 13 24 13 9
FIXUPS: c24e 9 18 9 1f 13 9 18 9 18 9 1f 4b a fffff94c 18 9 18 9 27 23
FIXUPS: bd8b 1c 73 13 9 1a 9 18 9 1f 24 27 23 9 22 15 9 20 15 9 6f 2d 13
FIXUPS: c046 18 fffff882 e 11 4a 1c f c e 19 17 f 14 1d 42 17 4a 1c 1a
FIXUPS: bb21 1c 13 17 e 21 21 3b 2e 20 20 25 17 c fffff5b1 29 29 27 13
FIXUPS: b389 13 20 13 28 1e 40 2c 29 22 30 3c 10 4f 20 d 48 1d 47 10 59
FIXUPS: b713 f 29 10 90 3f fffff389 34 2e 42 d c3 18 22 1c 48 32 35 99
FIXUPS: aed5 4f 19 6f 22 19 23 34 29 29 27 2b 37 37 27 30 37 37 27 fffff284
FIXUPS: a50e 16 10 54 1b 1e 37 10 11 10 10 54 12 e 15 2a 19 13 13 198 1b
FIXUPS: a9a9 15 4b 2c d 3a 16 2f c d fffff475 42 42 20 3b 42 1c 2f f 20
FIXUPS: a10c 1c 54 35 35 99 24 31 19 19 19 3f 1a 38 21 1b 1b 1b 1b 1b 1b
FIXUPS: a480 fffff53c 10 fc 1c 1e 12 d 33 2c d 57 21 f 10 33 13 25 35 28
FIXUPS: 9cf9 3f 13 24 83 38 1b 24 2a 14 29 2e 1c 779b 47 13 c 6b 30 1f
FIXUPS: 11836 20 21 22 19 2f 18 3b 28 10 ffff75e7 14e 124 68 139 49 26
FIXUPS: 93ec 108 38 17 22 17 19c 12d 7c34 18 9 18 9 2c 20 13 27 20 9 18
FIXUPS: 1158b 1f 21 d d d d d d d d d d d d d d d d d fffffb38 13 19 13
FIXUPS: 11238 13 2c e 13 9 27 13 9 18 9 27 13 9 18 9 27 13 9 18 9 27 13
FIXUPS: 11410 18 9 2c 13 fffff96a 15 16 1c 13 9 18 9 18 9 14 13 17 e 26
FIXUPS: 10efa 36 9 36 9 5c 25 9 36 9 85 21 9 82 13 9 3a fffff718 14 19
FIXUPS: 10924 10 38 10 20 1f 1f 2b 1c 1f 1f 16 13 1b0 e 11 44 13 f c e
FIXUPS: 10cf0 17 c 11 30 9 36 9 fffff4c0 22 27 3c 3f204 c fffc0e3b 24 24
FIXUPS: 10381 6b 13 63 7f 56 1f e9 19 77 1c 74 19 7e 8 1a 15 f 19 14 17
FIXUPS: 10897 1f fffff427 32 43 28 10 5b d 44 b 13 13 33 12 19 1f 14 2c
FIXUPS: ff54 3d 43 52 52 39 19 16 39 19 1c 3c 19 22 13 fffff2bd 7 7 46
FIXUPS: f4fb 12 22 7 3e 12 35 7 7 7 7 7 10 46 d 80 98 12 12 12 12 1b f5
FIXUPS: f8cf 21 11 1c3 3a fffff5d5 d 35 1c d 41 1a ae 3c 7 7 7 3e 12 35
FIXUPS: f324 7 7 7 7 46 12 12 3c 7 7 7 3e 12 35 7 7 fffff443 18 19 19 1c
FIXUPS: e953 19 1c 1c 16 a8 22 58 28 28 17 d 6e 36 42 54 54 54 170 29 10
FIXUPS: ef3b 13 68 d 4d 10 fffff323 30 47 13 d 3e 15 22 24 27 11 13 41
FIXUPS: e512 49 2a 3a 13 4c 15 15 f f 17 42 61 55 62 3a 18 19 16 fffff4be
FIXUPS: dd44 12 10 6a 34 40 63 31 20 1e 3a d 19 f d 10 3d d 12f 3f 42 25
FIXUPS: e1f1 47 13 14 25 30 44 13 14 fffff0e6 15 14 10 e0 26 3b 21 42 193
FIXUPS: d7b7 16 31 6c ad 16 49 1d 69 2e 78 3f 3d 1c 1c 21 25 16 22 f0 22
FIXUPS: dcf8 4a1c 13 ffffa0b2 d 61 1b4 16 17 15 8 10 10 2d 13 32 1c9 37
FIXUPS: cd14 30 1d 1d 1d 1d 1d 24b 1b 1b 184 13 3a 1b1 16 4edc 1f 1f 1f
FIXUPS: 12346 10 10 56 d 17 d d 28 d c4 d 23 3d d 1b 4c 17 24 34 2f 3ce93
FIXUPS: 4f510 c fffc3185 13 13 3a fffff62a b d f b b b 1d 33 f 30 15 12
FIXUPS: 11fb0 f 43 3f 3b 18 13 1f 1d 17 18 13 1f 1d 13 ab 10 2e 4e d01
FIXUPS: 12fc0 16 1d 30 14 16 1d 13 d 31 12 62 2e 14 16 1d 13 d 31 12 ffffe9f4
FIXUPS: 11c0b 4c 20 1f 12 e b f b 33 f95 28 29 28 29 28 3c 3c77c b b b
FIXUPS: 4f551 b b b c fffc3863 d 4a d 2c 8 d 2e b b d 2d b b d 58 8f5 46
FIXUPS: 138ee d d3 a9 92 18 f ffffecee 35 35 35 35 35 35 35 26 b3 d 43
FIXUPS: 12ac7 54 1f 29 1f 29 1f 38 27 29 28 119f 10 64 10 44 7 d fffff37f
FIXUPS: 13306 33 5c 1a 3c1e6 c fffc3ea1 22 10 2d 13 13 82 8 d 6a 10 a6
FIXUPS: 1368f 52 2b 9c 50 47 21e9 1b 17 17 20 f 14 f 14 26 4e f d d d d
FIXUPS: 15b9b d d d d d d d d 47 13 d ffffdfde 15 123 10 176d 27 d 5e a
FIXUPS: 155cc 6b a 32 75 a 33 6b a 36 78 a 36 77 39d89 e e e e c fffc628f
FIXUPS: 1597d 1a 17 28 17 20 fffff461 44 3a783 c fffc58c9 10 3b 3b 45 2a
FIXUPS: 1502b 2b 3d 18 13 7 2b 42 7 17 3a505 b b c fffc5b07 2b 42 1e 2b4
FIXUPS: 154c4 15 1d fffff256 33 3e 33 3e 4a 40 20 10 109 36 1d 7e 13 8c
FIXUPS: 14b6d 13 45 29 2f 1c 38 2d 3a977 c fffc5707 f 13 42 2d 57 39 fffff3a6
FIXUPS: 141fc 6b 3b 3b 3b 2b 1a 3b29a b fffc4d97 f f 11 10 3f 3e 27 40
FIXUPS: 144e2 d e 40 2b d 44 3e 33 40 33 3e 33 25e7 29 3c 8 ba 34 ffffee5f
FIXUPS: 15ccc 1d 1f 43 1f 1f 1a ffffe198 139 20 29 20 29 23 35 13 8 f 24
FIXUPS: 4f5b7 a b b c fffc4c01 22f3 1b 41 391c2 c fffc6e60 1b0 18 7e 29
FIXUPS: 167f9 8 bd 16 27 31 1b 6d 38d61 b c fffc7409 7 29 7 2e 7 2f 7 12
FIXUPS: 16c2a 8 fffff2fa 16 16 26 16 11 10 65 2e 19 5d 21 f 5c f 5d f 30
FIXUPS: 16202 2f 4b 63 59 22 1c 56 27 46 3929c c fffc6da5 1b
